(lp1
(lp2
S'Matt Ryan'
p3
a(lp4
F13.140000000000001
aF25.600000000000001
aaF19.370000000000001
aF23.57
aI6300
aa(lp5
S'Jamaal Charles'
p6
a(lp7
F6.2800000000000002
aF29.579999999999998
aaF17.93
aF22.469999999999999
aI7900
aa(lp8
S'DeMarco Murray'
p9
a(lp10
F7.2400000000000002
aF28.98
aaF18.109999999999999
aF23.91
aI8500
aa(lp11
S'Julio Jones'
p12
a(lp13
F5.5700000000000003
aF17.890000000000001
aaF11.73
aF17.780000000000001
aI7000
aa(lp14
S'Steve Smith'
p15
a(lp16
F3.9700000000000002
aF15.609999999999999
aaF9.7899999999999991
aF15.1
aI4800
aa(lp17
S'Mike Wallace'
p18
a(lp19
F2.0899999999999999
aF17.07
aaF9.5800000000000001
aF15.02
aI4900
aa(lp20
S'Owen Daniels'
p21
a(lp22
F0.33000000000000002
aF15.17
aaF7.75
aF11.69
aI3100
aa(lp23
S'Marques Colston'
p24
a(lp25
F2.1099999999999999
aF16.210000000000001
aaF9.1600000000000001
aF13.470000000000001
aI4200
aa(lp26
S'Indianapolis'
p27
a(lp28
F4.4299999999999997
aF18.030000000000001
aaF11.23
aF10.15
aI3200
aa.