(lp1
(lp2
S'Philip Rivers'
p3
a(lp4
F12.99
aF26.41
aaF19.699999999999999
aF20.550000000000001
aI6600
aa(lp5
S'DeMarco Murray'
p6
a(lp7
F7.2400000000000002
aF28.98
aaF18.109999999999999
aF23.91
aI8500
aa(lp8
S'Jamaal Charles'
p9
a(lp10
F6.2800000000000002
aF29.579999999999998
aaF17.93
aF22.469999999999999
aI7900
aa(lp11
S'Marques Colston'
p12
a(lp13
F2.1099999999999999
aF16.210000000000001
aaF9.1600000000000001
aF13.470000000000001
aI4200
aa(lp14
S'Steve Smith'
p15
a(lp16
F3.9700000000000002
aF15.609999999999999
aaF9.7899999999999991
aF15.1
aI4800
aa(lp17
S'Kenny Britt'
p18
a(lp19
F2.23
aF13.890000000000001
aaF8.0600000000000005
aF11.16
aI4600
aa(lp20
S'Owen Daniels'
p21
a(lp22
F0.33000000000000002
aF15.17
aaF7.75
aF11.69
aI3100
aa(lp23
S'Marshawn Lynch'
p24
a(lp25
F7.8700000000000001
aF23.43
aaF15.65
aF19.829999999999998
aI6700
aa(lp26
S'Green Bay'
p27
a(lp28
F3.2799999999999998
aF17.800000000000001
aaF10.539999999999999
aF9.4399999999999995
aI3400
aa.