(lp1
(lp2
(lp3
S'Tom Brady'
p4
a(lp5
F16.309999999999999
aF30.190000000000001
aaF23.25
aF27.239999999999998
aI8500
aS'SD'
p6
aa(lp7
S'Steven Jackson'
p8
a(lp9
F2.2400000000000002
aF14.960000000000001
aaF8.5999999999999996
aF10.27
aI3900
aS'GB'
p10
aa(lp11
S'Ryan Mathews'
p12
a(lp13
F0.17999999999999999
aF22.98
aaF11.58
aF13.369999999999999
aI4700
aS'NE'
p14
aa(lp15
S'Julian Edelman'
p16
a(lp17
F4.6900000000000004
aF14.369999999999999
aaF9.5299999999999994
aF16.030000000000001
aI6300
aS'SD'
p18
aa(lp19
S'Anquan Boldin'
p20
a(lp21
F3.5699999999999998
aF16.710000000000001
aaF10.140000000000001
aF15.65
aI5900
aS'OAK'
p22
aa(lp23
S'Randall Cobb'
p24
a(lp25
F6.3099999999999996
aF19.309999999999999
aaF12.81
aF18.91
aI7400
aS'ATL'
p26
aa(lp27
S'Julius Thomas'
p28
a(lp29
F2.6000000000000001
aF15.960000000000001
aaF9.2799999999999994
aF13.720000000000001
aI5200
aS'BUF'
p30
aa(lp31
S'Travis Kelce'
p32
a(lp33
F2.0099999999999998
aF12.69
aaF7.3499999999999996
aF11.32
aI4500
aS'ARI'
p34
aa(lp35
S'San Francisco'
p36
a(lp37
F7.3600000000000003
aF23.899999999999999
aaF15.630000000000001
aF14.449999999999999
aI3600
aS'OAK'
p38
aaa(lp39
(lp40
S'Matt Ryan'
p41
a(lp42
F13.300000000000001
aF27.48
aaF20.390000000000001
aF24.57
aI7000
aS'GB'
p43
aag11
ag7
ag19
a(lp44
S'Demaryius Thomas'
p45
a(lp46
F6.21
aF21.309999999999999
aaF13.76
aF20.780000000000001
aI8800
aS'BUF'
p47
aag15
ag27
a(lp48
S'Shane Vereen'
p49
a(lp50
F1.6799999999999999
aF14.94
aaF8.3100000000000005
aF12.31
aI4600
aS'SD'
p51
aag35
aa(lp52
g40
ag11
ag48
ag15
ag44
ag19
ag27
ag7
ag35
aa(lp53
g40
ag48
ag11
ag15
ag23
ag19
ag27
a(lp54
S'Fred Jackson'
p55
a(lp56
F4.1600000000000001
aF14.08
aaF9.1199999999999992
aF12.529999999999999
aI5300
aS'DEN'
p57
aag35
aa(lp58
g40
ag48
ag54
ag23
ag15
ag19
ag27
ag11
ag35
aa.