(lp1
(lp2
(lp3
S'Russell Wilson'
p4
a(lp5
F7.7000000000000002
aF26.140000000000001
aaF16.920000000000002
aF18.420000000000002
aI7700
aS'PHI'
p6
aa(lp7
S'Eddie Lacy'
p8
a(lp9
F6.6799999999999997
aF21.100000000000001
aaF13.890000000000001
aF17.440000000000001
aI7800
aS'ATL'
p10
aa(lp11
S'Bishop Sankey'
p12
a(lp13
F4.6699999999999999
aF14.67
aaF9.6699999999999999
aF12.31
aI4000
aS'NYG'
p14
aa(lp15
S'Mike Wallace'
p16
a(lp17
F1.6799999999999999
aF16.539999999999999
aaF9.1099999999999994
aF14.460000000000001
aI5200
aS'BAL'
p18
aa(lp19
S'Mike Evans'
p20
a(lp21
F3.2200000000000002
aF15.220000000000001
aaF9.2200000000000006
aF15.17
aI6700
aS'DET'
p22
aa(lp23
S'Kelvin Benjamin'
p24
a(lp25
F4.4800000000000004
aF15.42
aaF9.9499999999999993
aF14.57
aI6500
aS'NO'
p26
aa(lp27
S'Kyle Rudolph'
p28
a(lp29
F0.050000000000000003
aF11.949999999999999
aaF6
aF9.1899999999999995
aI3300
aS'NYJ'
p30
aa(lp31
S'Torrey Smith'
p32
a(lp33
F2
aF14.18
aaF8.0899999999999999
aF12.619999999999999
aI5700
aS'MIA'
p34
aa(lp35
S'New Orleans'
p36
a(lp37
F2.1699999999999999
aF11.869999999999999
aaF7.0199999999999996
aF6.5300000000000002
aI3000
aS'CAR'
p38
aaa(lp39
(lp40
S'Matt Ryan'
p41
a(lp42
F13.300000000000001
aF27.48
aaF20.390000000000001
aF24.57
aI7000
aS'GB'
p43
aa(lp44
S'Tre Mason'
p45
a(lp46
F2.4399999999999999
aF15.92
aaF9.1799999999999997
aF12.26
aI6700
aS'WSH'
p47
aa(lp48
S'Fred Jackson'
p49
a(lp50
F4.1600000000000001
aF14.08
aaF9.1199999999999992
aF12.529999999999999
aI5300
aS'DEN'
p51
aa(lp52
S'Anquan Boldin'
p53
a(lp54
F3.5699999999999998
aF16.710000000000001
aaF10.140000000000001
aF15.65
aI5900
aS'OAK'
p55
aa(lp56
S'Steve Smith'
p57
a(lp58
F2.8100000000000001
aF13.99
aaF8.4000000000000004
aF12.57
aI4300
aS'MIA'
p59
aa(lp60
S'Julian Edelman'
p61
a(lp62
F4.6900000000000004
aF14.369999999999999
aaF9.5299999999999994
aF16.030000000000001
aI6300
aS'SD'
p63
aa(lp64
S'Greg Olsen'
p65
a(lp66
F1.74
aF14.44
aaF8.0899999999999999
aF12.42
aI4900
aS'NO'
p67
aa(lp68
S'Roddy White'
p69
a(lp70
F2.9700000000000002
aF14.75
aaF8.8599999999999994
aF14.039999999999999
aI6200
aS'GB'
p71
aa(lp72
S'Arizona'
p73
a(lp74
F1.8300000000000001
aF15.109999999999999
aaF8.4700000000000006
aF8.8699999999999992
aI3400
aS'KC'
p75
aaa(lp76
(lp77
S'Colin Kaepernick'
p78
a(lp79
F8.2100000000000009
aF26.109999999999999
aaF17.16
aF18.27
aI6500
aS'OAK'
p80
aa(lp81
S'Justin Forsett'
p82
a(lp83
F4.7300000000000004
aF19.93
aaF12.33
aF15.609999999999999
aI6900
aS'MIA'
p84
aa(lp85
S'Lesean McCoy'
p86
a(lp87
F2.8999999999999999
aF18.600000000000001
aaF10.75
aF13.44
aI6400
aS'SEA'
p88
aag15
ag56
a(lp89
S'Julio Jones'
p90
a(lp91
F6.9800000000000004
aF20.859999999999999
aaF13.92
aF20.02
aI8300
aS'GB'
p92
aa(lp93
S'Jordan Cameron'
p94
a(lp95
F18.579999999999998
aaF5.75
aF8.6300000000000008
aI3000
aS'IND'
p96
aa(lp97
S'Jimmy Graham'
p98
a(lp99
F4.0899999999999999
aF13.529999999999999
aaF8.8100000000000005
aF14.369999999999999
aI6500
aS'CAR'
p100
aa(lp101
S'Kansas City'
p102
a(lp103
F3.46
aF15.539999999999999
aaF9.5
aF8.5399999999999991
aI2900
aS'ARI'
p104
aaa(lp105
(lp106
S'Teddy Bridgewater'
p107
a(lp108
F7.2300000000000004
aF21.670000000000002
aaF14.449999999999999
aF15.81
aI5500
aS'NYJ'
p109
aa(lp110
S'Ryan Mathews'
p111
a(lp112
F0.17999999999999999
aF22.98
aaF11.58
aF13.369999999999999
aI4700
aS'NE'
p113
aag11
a(lp114
S'Emmanuel Sanders'
p115
a(lp116
F4.0999999999999996
aF17.98
aaF11.039999999999999
aF16.18
aI7900
aS'BUF'
p117
aa(lp118
S'DeAndre Hopkins'
p119
a(lp120
F2.29
aF17.329999999999998
aaF9.8100000000000005
aF14.960000000000001
aI6600
aS'JAC'
p121
aa(lp122
S'Alshon Jeffery'
p123
a(lp124
F4.9400000000000004
aF18.359999999999999
aaF11.65
aF18.170000000000002
aI7000
aS'DAL'
p125
aag64
a(lp126
S'Dez Bryant'
p127
a(lp128
F6.4299999999999997
aF17.829999999999998
aaF12.130000000000001
aF18.079999999999998
aI7100
aS'CHI'
p129
aa(lp130
S'Oakland'
p131
a(lp132
F1.0600000000000001
aF17.059999999999999
aaF9.0600000000000005
aF7.8700000000000001
aI2100
aS'SF'
p133
aaa(lp134
g40
a(lp135
S'Steven Jackson'
p136
a(lp137
F2.2400000000000002
aF14.960000000000001
aaF8.5999999999999996
aF10.27
aI3900
aS'GB'
p138
aa(lp139
S'Alfred Morris'
p140
a(lp141
F3.2599999999999998
aF16.640000000000001
aaF9.9499999999999993
aF12.94
aI5500
aS'STL'
p142
aa(lp143
S'Brandon LaFell'
p144
a(lp145
F2.46
aF14.539999999999999
aaF8.5
aF12.69
aI6100
aS'SD'
p146
aa(lp147
S'Mohamed Sanu'
p148
a(lp149
F2.98
aF14.32
aaF8.6500000000000004
aF12.779999999999999
aI4800
aS'PIT'
p150
aa(lp151
S'Demaryius Thomas'
p152
a(lp153
F6.21
aF21.309999999999999
aaF13.76
aF20.780000000000001
aI8800
aS'BUF'
p154
aag64
ag15
a(lp155
S'San Francisco'
p156
a(lp157
F7.3600000000000003
aF23.899999999999999
aaF15.630000000000001
aF14.449999999999999
aI3600
aS'OAK'
p158
aaa.