(lp1
(lp2
(lp3
S'Tom Brady'
p4
a(lp5
F16.309999999999999
aF30.190000000000001
aaF23.25
aF27.239999999999998
aI8500
aS'SD'
p6
aa(lp7
S'Steven Jackson'
p8
a(lp9
F2.2400000000000002
aF14.960000000000001
aaF8.5999999999999996
aF10.27
aI3900
aS'GB'
p10
aa(lp11
S'Frank Gore'
p12
a(lp13
F2.4399999999999999
aF16.140000000000001
aaF9.2899999999999991
aF11.5
aI4800
aS'OAK'
p14
aa(lp15
S'Sammy Watkins'
p16
a(lp17
F2.8599999999999999
aF14.640000000000001
aaF8.75
aF13.31
aI5800
aS'DEN'
p18
aa(lp19
S'Anquan Boldin'
p20
a(lp21
F3.5699999999999998
aF16.710000000000001
aaF10.140000000000001
aF15.65
aI5900
aS'OAK'
p22
aa(lp23
S'Randall Cobb'
p24
a(lp25
F6.3099999999999996
aF19.309999999999999
aaF12.81
aF18.91
aI7400
aS'ATL'
p26
aa(lp27
S'Julius Thomas'
p28
a(lp29
F2.6000000000000001
aF15.960000000000001
aaF9.2799999999999994
aF13.720000000000001
aI5200
aS'BUF'
p30
aa(lp31
S'Ryan Mathews'
p32
a(lp33
F0.17999999999999999
aF22.98
aaF11.58
aF13.369999999999999
aI4700
aS'NE'
p34
aa(lp35
S'San Francisco'
p36
a(lp37
F7.3600000000000003
aF23.899999999999999
aaF15.630000000000001
aF14.449999999999999
aI3600
aS'OAK'
p38
aaa(lp39
g3
ag7
ag31
ag23
ag15
ag19
ag27
ag11
ag35
aa(lp40
(lp41
S'Matt Ryan'
p42
a(lp43
F13.300000000000001
aF27.48
aaF20.390000000000001
aF24.57
aI7000
aS'GB'
p44
aag31
ag7
ag19
a(lp45
S'Jordy Nelson'
p46
a(lp47
F5.5199999999999996
aF21.760000000000002
aaF13.640000000000001
aF19.48
aI8100
aS'ATL'
p48
aag23
a(lp49
S'Travis Kelce'
p50
a(lp51
F2.0099999999999998
aF12.69
aaF7.3499999999999996
aF11.32
aI4500
aS'ARI'
p52
aag11
ag35
aa(lp53
g41
ag11
ag7
ag45
ag19
ag23
ag49
ag31
ag35
aa(lp54
g41
ag31
ag7
ag23
ag45
ag19
ag49
ag11
ag35
aa.