(lp1
(lp2
(lp3
S'Kyle Orton'
p4
a(lp5
F5.3700000000000001
aF19.109999999999999
aaF12.24
aF13.76
aI5600
aS'DEN'
p6
aa(lp7
S'Reggie Bush'
p8
a(lp9
F3.3599999999999999
aF14.279999999999999
aaF8.8200000000000003
aF11.890000000000001
aI4400
aS'TB'
p10
aa(lp11
S'Jamaal Charles'
p12
a(lp13
F5.8700000000000001
aF26.289999999999999
aaF16.079999999999998
aF20.149999999999999
aI8500
aS'ARI'
p14
aa(lp15
S'Mohamed Sanu'
p16
a(lp17
F2.98
aF14.32
aaF8.6500000000000004
aF12.779999999999999
aI4800
aS'PIT'
p18
aa(lp19
S'Marques Colston'
p20
a(lp21
F2.9199999999999999
aF14.300000000000001
aaF8.6099999999999994
aF13.390000000000001
aI4500
aS'CAR'
p22
aa(lp23
S'Keenan Allen'
p24
a(lp25
F3.1699999999999999
aF13.890000000000001
aaF8.5299999999999994
aF14.24
aI7200
aS'NE'
p26
aa(lp27
S'Jimmy Graham'
p28
a(lp29
F4.0899999999999999
aF13.529999999999999
aaF8.8100000000000005
aF14.369999999999999
aI6500
aS'CAR'
p30
aa(lp31
S'Greg Olsen'
p32
a(lp33
F1.74
aF14.44
aaF8.0899999999999999
aF12.42
aI4900
aS'NO'
p34
aa(lp35
S'Arizona'
p36
a(lp37
F1.8300000000000001
aF15.109999999999999
aaF8.4700000000000006
aF8.8699999999999992
aI3400
aS'KC'
p38
aaa(lp39
(lp40
S'Colt McCoy'
p41
a(lp42
F9.5299999999999994
aF21.010000000000002
aaF15.27
aF16.23
aI6000
aS'STL'
p43
aa(lp44
S'Frank Gore'
p45
a(lp46
F2.4399999999999999
aF16.140000000000001
aaF9.2899999999999991
aF11.5
aI4800
aS'OAK'
p47
aa(lp48
S'Fred Jackson'
p49
a(lp50
F4.1600000000000001
aF14.08
aaF9.1199999999999992
aF12.529999999999999
aI5300
aS'DEN'
p51
aa(lp52
S'Demaryius Thomas'
p53
a(lp54
F6.21
aF21.309999999999999
aaF13.76
aF20.780000000000001
aI8800
aS'BUF'
p55
aag23
ag15
a(lp56
S'Delanie Walker'
p57
a(lp58
F0.91000000000000003
aF10.99
aaF5.9500000000000002
aF9.4299999999999997
aI4200
aS'NYG'
p59
aa(lp60
S'Sammy Watkins'
p61
a(lp62
F2.8599999999999999
aF14.640000000000001
aaF8.75
aF13.31
aI5800
aS'DEN'
p63
aa(lp64
S'Kansas City'
p65
a(lp66
F3.46
aF15.539999999999999
aaF9.5
aF8.5399999999999991
aI2900
aS'ARI'
p67
aaa(lp68
(lp69
S'Tony Romo'
p70
a(lp71
F11.619999999999999
aF27.940000000000001
aaF19.780000000000001
aF20.800000000000001
aI7500
aS'CHI'
p72
aa(lp73
S'Shane Vereen'
p74
a(lp75
F1.6799999999999999
aF14.94
aaF8.3100000000000005
aF12.31
aI4600
aS'SD'
p76
aa(lp77
S'Lamar Miller'
p78
a(lp79
F0.85999999999999999
aF18.66
aaF9.7599999999999998
aF13.82
aI4500
aS'BAL'
p80
aa(lp81
S'Mike Wallace'
p82
a(lp83
F1.6799999999999999
aF16.539999999999999
aaF9.1099999999999994
aF14.460000000000001
aI5200
aS'BAL'
p84
aa(lp85
S'Golden Tate'
p86
a(lp87
F4.9900000000000002
aF16.390000000000001
aaF10.69
aF16.23
aI7500
aS'TB'
p88
aa(lp89
S'Brandon LaFell'
p90
a(lp91
F2.46
aF14.539999999999999
aaF8.5
aF12.69
aI6100
aS'SD'
p92
aa(lp93
S'Heath Miller'
p94
a(lp95
F1.3700000000000001
aF9.5500000000000007
aaF5.46
aF9.25
aI4600
aS'CIN'
p96
aa(lp97
S'Jeremy Maclin'
p98
a(lp99
F4.6100000000000003
aF15.289999999999999
aaF9.9499999999999993
aF15.699999999999999
aI6800
aS'SEA'
p100
aa(lp101
S'Dallas'
p102
a(lp103
F2.5699999999999998
aF17.289999999999999
aaF9.9299999999999997
aF8.6199999999999992
aI3200
aS'CHI'
p104
aaa(lp105
(lp106
S'Mark Sanchez'
p107
a(lp108
F8.3900000000000006
aF21.289999999999999
aaF14.84
aF16.100000000000001
aI6300
aS'SEA'
p109
aa(lp110
S'Mark Ingram'
p111
a(lp112
F4.0300000000000002
aF20.870000000000001
aaF12.449999999999999
aF13.34
aI6500
aS'CAR'
p113
aa(lp114
S'Ryan Mathews'
p115
a(lp116
F0.17999999999999999
aF22.98
aaF11.58
aF13.369999999999999
aI4700
aS'NE'
p117
aa(lp118
S'DeAndre Hopkins'
p119
a(lp120
F2.29
aF17.329999999999998
aaF9.8100000000000005
aF14.960000000000001
aI6600
aS'JAC'
p121
aa(lp122
S'Steve Smith'
p123
a(lp124
F2.8100000000000001
aF13.99
aaF8.4000000000000004
aF12.57
aI4300
aS'MIA'
p125
aa(lp126
S'Julian Edelman'
p127
a(lp128
F4.6900000000000004
aF14.369999999999999
aaF9.5299999999999994
aF16.030000000000001
aI6300
aS'SD'
p129
aag31
a(lp130
S'Mike Evans'
p131
a(lp132
F3.2200000000000002
aF15.220000000000001
aaF9.2200000000000006
aF15.17
aI6700
aS'DET'
p133
aa(lp134
S'Philadelphia'
p135
a(lp136
F2.3999999999999999
aF12.800000000000001
aaF7.5999999999999996
aF7.2300000000000004
aI3500
aS'SEA'
p137
aaa(lp138
(lp139
S'Peyton Manning'
p140
a(lp141
F12.67
aF30.25
aaF21.460000000000001
aF25.859999999999999
aI9300
aS'BUF'
p142
aag48
ag77
a(lp143
S'Dez Bryant'
p144
a(lp145
F6.4299999999999997
aF17.829999999999998
aaF12.130000000000001
aF18.079999999999998
aI7100
aS'CHI'
p146
aag126
a(lp147
S'Anquan Boldin'
p148
a(lp149
F3.5699999999999998
aF16.710000000000001
aaF10.140000000000001
aF15.65
aI5900
aS'OAK'
p150
aag93
a(lp151
S'Jason Witten'
p152
a(lp153
F0.87
aF10.83
aaF5.8499999999999996
aF9.6799999999999997
aI4700
aS'CHI'
p154
aa(lp155
S'Tennessee'
p156
a(lp157
F2.5800000000000001
aF15.460000000000001
aaF9.0199999999999996
aF7.8300000000000001
aI2300
aS'NYG'
p158
aaa.