(lp1
(lp2
(lp3
S'Tom Brady'
p4
a(lp5
F16.309999999999999
aF30.190000000000001
aaF23.25
aF27.239999999999998
aI8500
aS'SD'
p6
aa(lp7
S'Lamar Miller'
p8
a(lp9
F0.85999999999999999
aF18.66
aaF9.7599999999999998
aF13.82
aI4500
aS'BAL'
p10
aa(lp11
S'Frank Gore'
p12
a(lp13
F2.4399999999999999
aF16.140000000000001
aaF9.2899999999999991
aF11.5
aI4800
aS'OAK'
p14
aa(lp15
S'Calvin Johnson'
p16
a(lp17
F4.8899999999999997
aF23.77
aaF14.33
aF20.300000000000001
aI9500
aS'TB'
p18
aa(lp19
S'Mike Wallace'
p20
a(lp21
F1.6799999999999999
aF16.539999999999999
aaF9.1099999999999994
aF14.460000000000001
aI5200
aS'BAL'
p22
aa(lp23
S'Marques Colston'
p24
a(lp25
F2.9199999999999999
aF14.300000000000001
aaF8.6099999999999994
aF13.390000000000001
aI4500
aS'CAR'
p26
aa(lp27
S'Julius Thomas'
p28
a(lp29
F2.6000000000000001
aF15.960000000000001
aaF9.2799999999999994
aF13.720000000000001
aI5200
aS'BUF'
p30
aa(lp31
S'Bishop Sankey'
p32
a(lp33
F4.6699999999999999
aF14.67
aaF9.6699999999999999
aF12.31
aI4000
aS'NYG'
p34
aa(lp35
S'Houston'
p36
a(lp37
F8.7699999999999996
aF28.989999999999998
aaF18.879999999999999
aF16.460000000000001
aI3700
aS'JAC'
p38
aaa(lp39
(lp40
S'Drew Brees'
p41
a(lp42
F15.93
aF32.509999999999998
aaF24.219999999999999
aF28.359999999999999
aI9100
aS'CAR'
p43
aag31
a(lp44
S'Rashad Jennings'
p45
a(lp46
F3.46
aF22.780000000000001
aaF13.119999999999999
aF15.85
aI7100
aS'TEN'
p47
aa(lp48
S'DeSean Jackson'
p49
a(lp50
F3.1200000000000001
aF15.92
aaF9.5199999999999996
aF13.279999999999999
aI5800
aS'STL'
p51
aa(lp52
S'Anquan Boldin'
p53
a(lp54
F3.5699999999999998
aF16.710000000000001
aaF10.140000000000001
aF15.65
aI5900
aS'OAK'
p55
aa(lp56
S'Mohamed Sanu'
p57
a(lp58
F2.98
aF14.32
aaF8.6500000000000004
aF12.779999999999999
aI4800
aS'PIT'
p59
aa(lp60
S'Jordan Cameron'
p61
a(lp62
F18.579999999999998
aaF5.75
aF8.6300000000000008
aI3000
aS'IND'
p63
aa(lp64
S'Mark Ingram'
p65
a(lp66
F4.0300000000000002
aF20.870000000000001
aaF12.449999999999999
aF13.34
aI6500
aS'CAR'
p67
aag35
aa(lp68
g40
ag11
ag31
ag56
ag23
ag52
a(lp69
S'Dwayne Allen'
p70
a(lp71
F1.6499999999999999
aF11.01
aaF6.3300000000000001
aF9.1300000000000008
aI3600
aS'CLE'
p72
aa(lp73
S"Le'Veon Bell"
p74
a(lp75
F8.5199999999999996
aF24.780000000000001
aaF16.649999999999999
aF22.09
aI9400
aS'CIN'
p76
aag35
aa(lp77
g3
ag31
ag73
ag23
ag52
a(lp78
S'Kelvin Benjamin'
p79
a(lp80
F4.4800000000000004
aF15.42
aaF9.9499999999999993
aF14.57
aI6500
aS'NO'
p81
aag60
ag7
ag35
aa(lp82
g40
ag7
ag31
ag52
ag23
a(lp83
S'Demaryius Thomas'
p84
a(lp85
F6.21
aF21.309999999999999
aaF13.76
aF20.780000000000001
aI8800
aS'BUF'
p86
aag60
ag64
ag35
aa.