(lp1
(lp2
S'Matt Ryan'
p3
a(lp4
F13.140000000000001
aF25.600000000000001
aaF19.370000000000001
aF23.57
aI6300
aa(lp5
S'Marshawn Lynch'
p6
a(lp7
F7.8700000000000001
aF23.43
aaF15.65
aF19.829999999999998
aI6700
aa(lp8
S'DeMarco Murray'
p9
a(lp10
F7.2400000000000002
aF28.98
aaF18.109999999999999
aF23.91
aI8500
aa(lp11
S'Julian Edelman'
p12
a(lp13
F4.3200000000000003
aF15.300000000000001
aaF9.8100000000000005
aF16.359999999999999
aI6000
aa(lp14
S'Marques Colston'
p15
a(lp16
F2.1099999999999999
aF16.210000000000001
aaF9.1600000000000001
aF13.470000000000001
aI4200
aa(lp17
S'Percy Harvin'
p18
a(lp19
F1.3899999999999999
aF16.57
aaF8.9800000000000004
aF14.57
aI4700
aa(lp20
S'Owen Daniels'
p21
a(lp22
F0.33000000000000002
aF15.17
aaF7.75
aF11.69
aI3100
aa(lp23
S'Alshon Jeffery'
p24
a(lp25
F5.7199999999999998
aF17.120000000000001
aaF11.42
aF17.41
aI7200
aa(lp26
S'Buffalo'
p27
a(lp28
F3.98
aF18.559999999999999
aaF11.27
aF10.41
aI3300
aa.