(lp1
(lp2
(lp3
S'Mark Sanchez'
p4
a(lp5
F11.51
aF24.550000000000001
aaF18.030000000000001
aF19.420000000000002
aI6800
aS'DAL'
p6
aa(lp7
S'DeMarco Murray'
p8
a(lp9
F8.0700000000000003
aF26.23
aaF17.149999999999999
aF20.84
aI8400
aS'PHI'
p10
aa(lp11
S'Frank Gore'
p12
a(lp13
F3.6600000000000001
aF13.32
aaF8.4900000000000002
aF10.960000000000001
aI3500
aS'SEA'
p14
aa(lp15
S'Jeremy Maclin'
p16
a(lp17
F5.7300000000000004
aF18.710000000000001
aaF12.220000000000001
aF18.329999999999998
aI6800
aS'DAL'
p18
aa(lp19
S'Anquan Boldin'
p20
a(lp21
F4.21
aF18.550000000000001
aaF11.380000000000001
aF17.280000000000001
aI5700
aS'SEA'
p22
aa(lp23
S'Alshon Jeffery'
p24
a(lp25
F3.2000000000000002
aF16.98
aaF10.09
aF16.129999999999999
aI6300
aS'DET'
p26
aa(lp27
S'Jason Witten'
p28
a(lp29
F2.4199999999999999
aF12.140000000000001
aaF7.2800000000000002
aF11.460000000000001
aI4500
aS'PHI'
p30
aa(lp31
S'Reggie Bush'
p32
a(lp33
F4
aF14.640000000000001
aaF9.3200000000000003
aF12.210000000000001
aI4500
aS'CHI'
p34
aa(lp35
S'Seattle'
p36
a(lp37
F0.48999999999999999
aF15.369999999999999
aaF7.9299999999999997
aF7.0999999999999996
aI3300
aS'SF'
p38
aaa(lp39
(lp40
S'Tony Romo'
p41
a(lp42
F10.449999999999999
aF25.129999999999999
aaF17.789999999999999
aF18.93
aI7600
aS'PHI'
p43
aag11
a(lp44
S'Lesean McCoy'
p45
a(lp46
F5.4400000000000004
aF20.579999999999998
aaF13.01
aF16.02
aI7400
aS'DAL'
p47
aa(lp48
S'Brandon Marshall'
p49
a(lp50
F2.5800000000000001
aF18.940000000000001
aaF10.76
aF15.93
aI6400
aS'DET'
p51
aa(lp52
S'Golden Tate'
p53
a(lp54
F4.5999999999999996
aF16.940000000000001
aaF10.77
aF16.539999999999999
aI6600
aS'CHI'
p55
aag15
a(lp56
S'Martellus Bennett'
p57
a(lp58
F1.9399999999999999
aF10.5
aaF6.2199999999999998
aF10.449999999999999
aI4000
aS'DET'
p59
aag31
a(lp60
S'Chicago'
p61
a(lp62
F1.52
aF15.02
aaF8.2699999999999996
aF7.6799999999999997
aI3000
aS'DET'
p63
aaa(lp64
(lp65
S'Colin Kaepernick'
p66
a(lp67
F7.0899999999999999
aF22.329999999999998
aaF14.710000000000001
aF16.100000000000001
aI6500
aS'SEA'
p68
aag11
a(lp69
S'Marshawn Lynch'
p70
a(lp71
F8.2400000000000002
aF23.82
aaF16.030000000000001
aF20.079999999999998
aI6400
aS'SF'
p72
aag19
ag52
ag23
ag27
ag15
a(lp73
S'Detroit'
p74
a(lp75
F5.3899999999999997
aF20.75
aaF13.07
aF11.76
aI3400
aS'CHI'
p76
aaa(lp77
g3
ag11
ag69
ag48
ag15
ag19
ag27
ag23
ag73
aa(lp78
g3
ag31
ag11
ag15
a(lp79
S'Dez Bryant'
p80
a(lp81
F4.3700000000000001
aF18.469999999999999
aaF11.42
aF17.27
aI7900
aS'PHI'
p82
aa(lp83
S'Calvin Johnson'
p84
a(lp85
F1.3200000000000001
aF25.579999999999998
aaF13.449999999999999
aF18.75
aI7000
aS'CHI'
p86
aag27
ag19
ag35
aa.