(lp1
(lp2
(lp3
S'Tony Romo'
p4
a(lp5
F10.449999999999999
aF25.129999999999999
aaF17.789999999999999
aF18.93
aI7600
aS'PHI'
p6
aa(lp7
S'Denard Robinson'
p8
a(lp9
F1.4199999999999999
aF15.220000000000001
aaF8.3200000000000003
aF10.57
aI6000
aS'NYG'
p10
aa(lp11
S'Frank Gore'
p12
a(lp13
F3.6600000000000001
aF13.32
aaF8.4900000000000002
aF10.960000000000001
aI3500
aS'SEA'
p14
aa(lp15
S'Odell Beckham'
p16
a(lp17
F2.6400000000000001
aF17.739999999999998
aaF10.19
aF15.289999999999999
aI6800
aS'JAC'
p18
aa(lp19
S'Julio Jones'
p20
a(lp21
F4.8700000000000001
aF16.809999999999999
aaF10.84
aF17.649999999999999
aI7200
aS'ARI'
p22
aa(lp23
S'Randall Cobb'
p24
a(lp25
F2.4399999999999999
aF19.059999999999999
aaF10.75
aF16.199999999999999
aI7500
aS'NE'
p26
aa(lp27
S'Greg Olsen'
p28
a(lp29
F2.1299999999999999
aF10.050000000000001
aaF6.0899999999999999
aF10.06
aI5300
aS'MIN'
p30
aa(lp31
S'Dwayne Allen'
p32
a(lp33
F1.71
aF10.27
aaF5.9900000000000002
aF8.5600000000000005
aI3600
aS'WSH'
p34
aa(lp35
S'Washington'
p36
a(lp37
F1.22
aF13.699999999999999
aaF7.46
aF6.3799999999999999
aI2300
aS'IND'
p38
aaa(lp39
(lp40
S'Colt McCoy'
p41
a(lp42
F8.4299999999999997
aF18.890000000000001
aaF13.66
aF14.67
aI5000
aS'IND'
p43
aa(lp44
S'Alfred Morris'
p45
a(lp46
F4.7599999999999998
aF19.420000000000002
aaF12.09
aF13.130000000000001
aI5500
aS'IND'
p47
aa(lp48
S'Rashad Jennings'
p49
a(lp50
F1.51
aF22.210000000000001
aaF11.859999999999999
aF15.02
aI6700
aS'JAC'
p51
aa(lp52
S'Mike Wallace'
p53
a(lp54
F3.21
aF15.99
aaF9.5999999999999996
aF15.08
aI4600
aS'NYJ'
p55
aa(lp56
S'DeSean Jackson'
p57
a(lp58
F2.8300000000000001
aF13.73
aaF8.2799999999999994
aF12.19
aI5900
aS'IND'
p59
aa(lp60
S'Sammy Watkins'
p61
a(lp62
F4.4100000000000001
aF15.970000000000001
aaF10.19
aF15.84
aI5800
aS'CLE'
p63
aa(lp64
S'Delanie Walker'
p65
a(lp66
F0.55000000000000004
aF11.449999999999999
aaF6
aF9.1400000000000006
aI4800
aS'HOU'
p67
aa(lp68
S'Emmanuel Sanders'
p69
a(lp70
F5.1699999999999999
aF17.93
aaF11.550000000000001
aF17.34
aI8700
aS'KC'
p71
aa(lp72
S'Carolina'
p73
a(lp74
F2.52
aF18.68
aaF10.6
aF10.039999999999999
aI2900
aS'MIN'
p75
aaa(lp76
g40
a(lp77
S'Lesean McCoy'
p78
a(lp79
F5.4400000000000004
aF20.579999999999998
aaF13.01
aF16.02
aI7400
aS'DAL'
p80
aa(lp81
S"Le'Veon Bell"
p82
a(lp83
F9.5399999999999991
aF30.5
aaF20.02
aF24.620000000000001
aI8700
aS'NO'
p84
aa(lp85
S'Marques Colston'
p86
a(lp87
F4.1100000000000003
aF14.85
aaF9.4800000000000004
aF14.34
aI4800
aS'PIT'
p88
aa(lp89
S'Kelvin Benjamin'
p90
a(lp91
F3.5099999999999998
aF19.309999999999999
aaF11.41
aF16.710000000000001
aI6600
aS'MIN'
p92
aag56
a(lp93
S'Martellus Bennett'
p94
a(lp95
F1.9399999999999999
aF10.5
aaF6.2199999999999998
aF10.449999999999999
aI4000
aS'DET'
p96
aa(lp97
S'Jason Witten'
p98
a(lp99
F2.4199999999999999
aF12.140000000000001
aaF7.2800000000000002
aF11.460000000000001
aI4500
aS'PHI'
p100
aa(lp101
S'Minnesota'
p102
a(lp103
F3.4700000000000002
aF18.57
aaF11.02
aF9.8200000000000003
aI2900
aS'CAR'
p104
aaa(lp105
(lp106
S'Eli Manning'
p107
a(lp108
F8.9499999999999993
aF22.289999999999999
aaF15.619999999999999
aF16.739999999999998
aI7000
aS'JAC'
p109
aa(lp110
S'Marshawn Lynch'
p111
a(lp112
F8.2400000000000002
aF23.82
aaF16.030000000000001
aF20.079999999999998
aI6400
aS'SF'
p113
aag11
a(lp114
S'Keenan Allen'
p115
a(lp116
F2.7400000000000002
aF15.640000000000001
aaF9.1899999999999995
aF14.550000000000001
aI6000
aS'BAL'
p117
aag56
a(lp118
S'Brandon Marshall'
p119
a(lp120
F2.5800000000000001
aF18.940000000000001
aaF10.76
aF15.93
aI6400
aS'DET'
p121
aa(lp122
S'Julius Thomas'
p123
a(lp124
F2.5600000000000001
aF16.260000000000002
aaF9.4100000000000001
aF14.33
aI5200
aS'KC'
p125
aa(lp126
S'Justin Forsett'
p127
a(lp128
F6.9199999999999999
aF21.719999999999999
aaF14.32
aF18.52
aI6300
aS'SD'
p129
aa(lp130
S'Baltimore'
p131
a(lp132
F0.59999999999999998
aF15.6
aaF8.0999999999999996
aF7.2599999999999998
aI3100
aS'SD'
p133
aaa(lp134
(lp135
S'Cam Newton'
p136
a(lp137
F7.71
aF21.77
aaF14.74
aF16.23
aI7100
aS'MIN'
p138
aa(lp139
S'Reggie Bush'
p140
a(lp141
F4
aF14.640000000000001
aaF9.3200000000000003
aF12.210000000000001
aI4500
aS'CHI'
p142
aag126
a(lp143
S'Calvin Johnson'
p144
a(lp145
F1.3200000000000001
aF25.579999999999998
aaF13.449999999999999
aF18.75
aI7000
aS'CHI'
p146
aag15
a(lp147
S'Roddy White'
p148
a(lp149
F3.96
aF15.699999999999999
aaF9.8300000000000001
aF15.42
aI6400
aS'ARI'
p150
aag97
a(lp151
S'Lamar Miller'
p152
a(lp153
F5.8099999999999996
aF21.050000000000001
aaF13.43
aF17.289999999999999
aI4500
aS'NYJ'
p154
aag72
aa.