(lp1
(lp2
(lp3
S'Drew Brees'
p4
a(lp5
F14.710000000000001
aF30.489999999999998
aaF22.600000000000001
aF26.93
aI8500
aS'PIT'
p6
aa(lp7
S'Lamar Miller'
p8
a(lp9
F5.8099999999999996
aF21.050000000000001
aaF13.43
aF17.289999999999999
aI4500
aS'NYJ'
p10
aa(lp11
S"Le'Veon Bell"
p12
a(lp13
F9.5399999999999991
aF30.5
aaF20.02
aF24.620000000000001
aI8700
aS'NO'
p14
aa(lp15
S'Larry Fitzgerald'
p16
a(lp17
F3.0600000000000001
aF14.779999999999999
aaF8.9199999999999999
aF13.67
aI5300
aS'ATL'
p18
aa(lp19
S'Mike Wallace'
p20
a(lp21
F3.21
aF15.99
aaF9.5999999999999996
aF15.08
aI4600
aS'NYJ'
p22
aa(lp23
S'Marques Colston'
p24
a(lp25
F4.1100000000000003
aF14.85
aaF9.4800000000000004
aF14.34
aI4800
aS'PIT'
p26
aa(lp27
S'Julius Thomas'
p28
a(lp29
F2.5600000000000001
aF16.260000000000002
aaF9.4100000000000001
aF14.33
aI5200
aS'KC'
p30
aa(lp31
S'Alfred Morris'
p32
a(lp33
F4.7599999999999998
aF19.420000000000002
aaF12.09
aF13.130000000000001
aI5500
aS'IND'
p34
aa(lp35
S'New York Giants'
p36
a(lp37
F3.8900000000000001
aF22.91
aaF13.4
aF11.48
aI2800
aS'JAC'
p38
aaa(lp39
(lp40
S'Drew Brees'
p41
a(lp42
F14.710000000000001
aF30.489999999999998
aaF22.600000000000001
aF26.93
aI8500
aS'PIT'
p43
aa(lp44
S"Le'Veon Bell"
p45
a(lp46
F9.5399999999999991
aF30.5
aaF20.02
aF24.620000000000001
aI8700
aS'NO'
p47
aa(lp48
S'Lamar Miller'
p49
a(lp50
F5.8099999999999996
aF21.050000000000001
aaF13.43
aF17.289999999999999
aI4500
aS'NYJ'
p51
aa(lp52
S'Larry Fitzgerald'
p53
a(lp54
F3.0600000000000001
aF14.779999999999999
aaF8.9199999999999999
aF13.67
aI5300
aS'ATL'
p55
aa(lp56
S'Mike Wallace'
p57
a(lp58
F3.21
aF15.99
aaF9.5999999999999996
aF15.08
aI4600
aS'NYJ'
p59
aa(lp60
S'Steve Smith'
p61
a(lp62
F3.5800000000000001
aF14.98
aaF9.2799999999999994
aF14.19
aI5000
aS'SD'
p63
aa(lp64
S'Travis Kelce'
p65
a(lp66
F2.1400000000000001
aF13.380000000000001
aaF7.7599999999999998
aF11.59
aI4300
aS'DEN'
p67
aa(lp68
S'Andre Ellington'
p69
a(lp70
F7.8099999999999996
aF20.09
aaF13.949999999999999
aF17.600000000000001
aI6200
aS'ATL'
p71
aa(lp72
S'New York Giants'
p73
a(lp74
F3.8900000000000001
aF22.91
aaF13.4
aF11.48
aI2800
aS'JAC'
p75
aaa(lp76
(lp77
S'Philip Rivers'
p78
a(lp79
F11.94
aF24.920000000000002
aaF18.43
aF19.27
aI6000
aS'BAL'
p80
aag7
a(lp81
S'Justin Forsett'
p82
a(lp83
F6.9199999999999999
aF21.719999999999999
aaF14.32
aF18.52
aI6300
aS'SD'
p84
aa(lp85
S'Kelvin Benjamin'
p86
a(lp87
F3.5099999999999998
aF19.309999999999999
aaF11.41
aF16.710000000000001
aI6600
aS'MIN'
p88
aa(lp89
S'Steve Smith'
p90
a(lp91
F3.5800000000000001
aF14.98
aaF9.2799999999999994
aF14.19
aI5000
aS'SD'
p92
aag23
ag27
ag11
ag35
aa(lp93
g3
ag7
ag11
ag15
ag89
ag19
a(lp94
S'Travis Kelce'
p95
a(lp96
F2.1400000000000001
aF13.380000000000001
aaF7.7599999999999998
aF11.59
aI4300
aS'DEN'
p97
aag81
ag35
aa(lp98
g3
ag81
ag7
a(lp99
S'Torrey Smith'
p100
a(lp101
F0.16
aF17.5
aaF8.8300000000000001
aF11.93
aI5500
aS'SD'
p102
aag19
ag23
a(lp103
S'Antonio Gates'
p104
a(lp105
F1.8999999999999999
aF13.76
aaF7.8300000000000001
aF11.75
aI4200
aS'BAL'
p106
aag11
ag35
aa.