(lp1
(lp2
(lp3
S'Andy Dalton'
p4
a(lp5
F11.17
aF24.129999999999999
aaF17.649999999999999
aF18.899999999999999
aI6100
aS'TB'
p6
aa(lp7
S"Le'Veon Bell"
p8
a(lp9
F9.5399999999999991
aF30.5
aaF20.02
aF24.620000000000001
aI8700
aS'NO'
p10
aa(lp11
S'Andre Ellington'
p12
a(lp13
F7.8099999999999996
aF20.09
aaF13.949999999999999
aF17.600000000000001
aI6200
aS'ATL'
p14
aa(lp15
S'Marques Colston'
p16
a(lp17
F4.1100000000000003
aF14.85
aaF9.4800000000000004
aF14.34
aI4800
aS'PIT'
p18
aa(lp19
S'Calvin Johnson'
p20
a(lp21
F1.3200000000000001
aF25.579999999999998
aaF13.449999999999999
aF18.75
aI7000
aS'CHI'
p22
aa(lp23
S'Anquan Boldin'
p24
a(lp25
F4.21
aF18.550000000000001
aaF11.380000000000001
aF17.280000000000001
aI5700
aS'SEA'
p26
aa(lp27
S'Dwayne Allen'
p28
a(lp29
F1.71
aF10.27
aaF5.9900000000000002
aF8.5600000000000005
aI3600
aS'WSH'
p30
aa(lp31
S'Lamar Miller'
p32
a(lp33
F5.8099999999999996
aF21.050000000000001
aaF13.43
aF17.289999999999999
aI4500
aS'NYJ'
p34
aa(lp35
S'Cincinnati'
p36
a(lp37
F4.4000000000000004
aF22.02
aaF13.210000000000001
aF11.050000000000001
aI3200
aS'TB'
p38
aaa(lp39
(lp40
S'Joe Flacco'
p41
a(lp42
F12.5
aF25.920000000000002
aaF19.210000000000001
aF19.809999999999999
aI6700
aS'SD'
p43
aag11
ag31
a(lp44
S'Mike Wallace'
p45
a(lp46
F3.21
aF15.99
aaF9.5999999999999996
aF15.08
aI4600
aS'NYJ'
p47
aag19
a(lp48
S'Andre Johnson'
p49
a(lp50
F3.29
aF14.289999999999999
aaF8.7899999999999991
aF14.380000000000001
aI4900
aS'TEN'
p51
aa(lp52
S'Travis Kelce'
p53
a(lp54
F2.1400000000000001
aF13.380000000000001
aaF7.7599999999999998
aF11.59
aI4300
aS'DEN'
p55
aag7
a(lp56
S'Houston'
p57
a(lp58
F4.2400000000000002
aF20.600000000000001
aaF12.42
aF10.960000000000001
aI3100
aS'TEN'
p59
aaa(lp60
(lp61
S'Matthew Stafford'
p62
a(lp63
F12.109999999999999
aF27.75
aaF19.93
aF21.039999999999999
aI7200
aS'CHI'
p64
aag31
a(lp65
S'Marshawn Lynch'
p66
a(lp67
F8.2400000000000002
aF23.82
aaF16.030000000000001
aF20.079999999999998
aI6400
aS'SF'
p68
aag48
a(lp69
S'Jeremy Maclin'
p70
a(lp71
F5.7300000000000004
aF18.710000000000001
aaF12.220000000000001
aF18.329999999999998
aI6800
aS'DAL'
p72
aa(lp73
S'Larry Fitzgerald'
p74
a(lp75
F3.0600000000000001
aF14.779999999999999
aaF8.9199999999999999
aF13.67
aI5300
aS'ATL'
p76
aa(lp77
S'Jordan Reed'
p78
a(lp79
F0.66000000000000003
aF12.539999999999999
aaF5.9400000000000004
aF9.9299999999999997
aI3200
aS'IND'
p80
aag7
a(lp81
S'New York Giants'
p82
a(lp83
F3.8900000000000001
aF22.91
aaF13.4
aF11.48
aI2800
aS'JAC'
p84
aaa(lp85
g3
ag31
ag7
ag19
a(lp86
S'Steve Smith'
p87
a(lp88
F3.5800000000000001
aF14.98
aaF9.2799999999999994
aF14.19
aI5000
aS'SD'
p89
aag23
a(lp90
S'Kyle Rudolph'
p91
a(lp92
F0.55000000000000004
aF11.529999999999999
aaF5.4900000000000002
aF8.25
aI3400
aS'CAR'
p93
aag65
a(lp94
S'Miami'
p95
a(lp96
F3.1800000000000002
aF21.219999999999999
aaF12.199999999999999
aF10.890000000000001
aI3200
aS'NYJ'
p97
aaa(lp98
g40
ag7
ag31
ag23
ag15
ag44
a(lp99
S'Julius Thomas'
p100
a(lp101
F2.5600000000000001
aF16.260000000000002
aaF9.4100000000000001
aF14.33
aI5200
aS'KC'
p102
aag65
ag94
aa.