(lp1
(lp2
(lp3
S'Drew Brees'
p4
a(lp5
F14.710000000000001
aF30.489999999999998
aaF22.600000000000001
aF26.93
aI8500
aS'PIT'
p6
aa(lp7
S'Lamar Miller'
p8
a(lp9
F5.8099999999999996
aF21.050000000000001
aaF13.43
aF17.289999999999999
aI4500
aS'NYJ'
p10
aa(lp11
S'Giovani Bernard'
p12
a(lp13
F3.1800000000000002
aF18.140000000000001
aaF10.66
aF14.44
aI5200
aS'TB'
p14
aa(lp15
S'Marques Colston'
p16
a(lp17
F4.1100000000000003
aF14.85
aaF9.4800000000000004
aF14.34
aI4800
aS'PIT'
p18
aa(lp19
S'Larry Fitzgerald'
p20
a(lp21
F3.0600000000000001
aF14.779999999999999
aaF8.9199999999999999
aF13.67
aI5300
aS'ATL'
p22
aa(lp23
S'Percy Harvin'
p24
a(lp25
F1.3
aF14.92
aaF8.1099999999999994
aF13.300000000000001
aI5000
aS'MIA'
p26
aa(lp27
S'Julius Thomas'
p28
a(lp29
F2.5600000000000001
aF16.260000000000002
aaF9.4100000000000001
aF14.33
aI5200
aS'KC'
p30
aa(lp31
S"Le'Veon Bell"
p32
a(lp33
F9.5399999999999991
aF30.5
aaF20.02
aF24.620000000000001
aI8700
aS'NO'
p34
aa(lp35
S'New York Giants'
p36
a(lp37
F3.8900000000000001
aF22.91
aaF13.4
aF11.48
aI2800
aS'JAC'
p38
aaa(lp39
g3
a(lp40
S'Andre Ellington'
p41
a(lp42
F7.8099999999999996
aF20.09
aaF13.949999999999999
aF17.600000000000001
aI6200
aS'ATL'
p43
aag31
a(lp44
S'Mike Wallace'
p45
a(lp46
F3.21
aF15.99
aaF9.5999999999999996
aF15.08
aI4600
aS'NYJ'
p47
aa(lp48
S'Sammy Watkins'
p49
a(lp50
F4.4100000000000001
aF15.970000000000001
aaF10.19
aF15.84
aI5800
aS'CLE'
p51
aag15
a(lp52
S'Jordan Reed'
p53
a(lp54
F0.66000000000000003
aF12.539999999999999
aaF5.9400000000000004
aF9.9299999999999997
aI3200
aS'IND'
p55
aag7
a(lp56
S'Arizona'
p57
a(lp58
F1.1899999999999999
aF18.989999999999998
aaF10.09
aF9.0199999999999996
aI3500
aS'ATL'
p59
aaa(lp60
(lp61
S'Drew Brees'
p62
a(lp63
F14.710000000000001
aF30.489999999999998
aaF22.600000000000001
aF26.93
aI8500
aS'PIT'
p64
aa(lp65
S"Le'Veon Bell"
p66
a(lp67
F9.5399999999999991
aF30.5
aaF20.02
aF24.620000000000001
aI8700
aS'NO'
p68
aa(lp69
S'Justin Forsett'
p70
a(lp71
F6.9199999999999999
aF21.719999999999999
aaF14.32
aF18.52
aI6300
aS'SD'
p72
aa(lp73
S'Roddy White'
p74
a(lp75
F3.96
aF15.699999999999999
aaF9.8300000000000001
aF15.42
aI6400
aS'ARI'
p76
aa(lp77
S'Mike Wallace'
p78
a(lp79
F3.21
aF15.99
aaF9.5999999999999996
aF15.08
aI4600
aS'NYJ'
p80
aa(lp81
S'Marques Colston'
p82
a(lp83
F4.1100000000000003
aF14.85
aaF9.4800000000000004
aF14.34
aI4800
aS'PIT'
p84
aa(lp85
S'Scott Chandler'
p86
a(lp87
F0.95999999999999996
aF9.1400000000000006
aaF5.0499999999999998
aF7.4500000000000002
aI3000
aS'CLE'
p88
aa(lp89
S'Lamar Miller'
p90
a(lp91
F5.8099999999999996
aF21.050000000000001
aaF13.43
aF17.289999999999999
aI4500
aS'NYJ'
p92
aa(lp93
S'Cincinnati'
p94
a(lp95
F4.4000000000000004
aF22.02
aaF13.210000000000001
aF11.050000000000001
aI3200
aS'TB'
p96
aaa(lp97
g3
ag31
ag7
a(lp98
S'Julian Edelman'
p99
a(lp100
F4.0099999999999998
aF14.59
aaF9.3000000000000007
aF16
aI6200
aS'GB'
p101
aag44
a(lp102
S'Andre Johnson'
p103
a(lp104
F3.29
aF14.289999999999999
aaF8.7899999999999991
aF14.380000000000001
aI4900
aS'TEN'
p105
aa(lp106
S'Travis Kelce'
p107
a(lp108
F2.1400000000000001
aF13.380000000000001
aaF7.7599999999999998
aF11.59
aI4300
aS'DEN'
p109
aag27
a(lp110
S'Houston'
p111
a(lp112
F4.2400000000000002
aF20.600000000000001
aaF12.42
aF10.960000000000001
aI3100
aS'TEN'
p113
aaa(lp114
g3
ag7
ag31
ag44
a(lp115
S'Mohamed Sanu'
p116
a(lp117
F3.8599999999999999
aF14.720000000000001
aaF9.2899999999999991
aF13.84
aI5200
aS'TB'
p118
aa(lp119
S'Brandon LaFell'
p120
a(lp121
F2.5
aF14.44
aaF8.4700000000000006
aF13.720000000000001
aI6100
aS'GB'
p122
aag52
a(lp123
S'Justin Forsett'
p124
a(lp125
F6.9199999999999999
aF21.719999999999999
aaF14.32
aF18.52
aI6300
aS'SD'
p126
aag35
aa.