(lp1
(lp2
(lp3
S'Tom Brady'
p4
a(lp5
F14.210000000000001
aF29.43
aaF21.82
aF26.050000000000001
aI8400
aS'GB'
p6
aa(lp7
S'Lamar Miller'
p8
a(lp9
F5.8099999999999996
aF21.050000000000001
aaF13.43
aF17.289999999999999
aI4500
aS'NYJ'
p10
aa(lp11
S'Andre Ellington'
p12
a(lp13
F7.8099999999999996
aF20.09
aaF13.949999999999999
aF17.600000000000001
aI6200
aS'ATL'
p14
aa(lp15
S'Mike Wallace'
p16
a(lp17
F3.21
aF15.99
aaF9.5999999999999996
aF15.08
aI4600
aS'NYJ'
p18
aa(lp19
S'Roddy White'
p20
a(lp21
F3.96
aF15.699999999999999
aaF9.8300000000000001
aF15.42
aI6400
aS'ARI'
p22
aa(lp23
S'Julio Jones'
p24
a(lp25
F4.8700000000000001
aF16.809999999999999
aaF10.84
aF17.649999999999999
aI7200
aS'ARI'
p26
aa(lp27
S'Julius Thomas'
p28
a(lp29
F2.5600000000000001
aF16.260000000000002
aaF9.4100000000000001
aF14.33
aI5200
aS'KC'
p30
aa(lp31
S'Travis Kelce'
p32
a(lp33
F2.1400000000000001
aF13.380000000000001
aaF7.7599999999999998
aF11.59
aI4300
aS'DEN'
p34
aa(lp35
S'Miami'
p36
a(lp37
F3.1800000000000002
aF21.219999999999999
aaF12.199999999999999
aF10.890000000000001
aI3200
aS'NYJ'
p38
aaa(lp39
g3
ag7
ag11
ag15
ag23
ag19
ag27
ag31
ag35
aa(lp40
g3
ag11
ag7
a(lp41
S'Julian Edelman'
p42
a(lp43
F4.0099999999999998
aF14.59
aaF9.3000000000000007
aF16
aI6200
aS'GB'
p44
aag19
ag15
ag27
a(lp45
S'Larry Fitzgerald'
p46
a(lp47
F3.0600000000000001
aF14.779999999999999
aaF8.9199999999999999
aF13.67
aI5300
aS'ATL'
p48
aag35
aa(lp49
g3
ag11
ag7
ag41
ag15
ag23
ag27
ag31
ag35
aa(lp50
g3
ag7
ag11
ag15
ag41
ag23
ag27
ag31
ag35
aa.