(lp1
(lp2
(lp3
S'Drew Brees'
p4
a(lp5
F14.710000000000001
aF30.489999999999998
aaF22.600000000000001
aF26.93
aI8500
aS'PIT'
p6
aa(lp7
S'Justin Forsett'
p8
a(lp9
F6.9199999999999999
aF21.719999999999999
aaF14.32
aF18.52
aI6300
aS'SD'
p10
aa(lp11
S"Le'Veon Bell"
p12
a(lp13
F9.5399999999999991
aF30.5
aaF20.02
aF24.620000000000001
aI8700
aS'NO'
p14
aa(lp15
S'Mohamed Sanu'
p16
a(lp17
F3.8599999999999999
aF14.720000000000001
aaF9.2899999999999991
aF13.84
aI5200
aS'TB'
p18
aa(lp19
S'Marques Colston'
p20
a(lp21
F4.1100000000000003
aF14.85
aaF9.4800000000000004
aF14.34
aI4800
aS'PIT'
p22
aa(lp23
S'Andre Johnson'
p24
a(lp25
F3.29
aF14.289999999999999
aaF8.7899999999999991
aF14.380000000000001
aI4900
aS'TEN'
p26
aa(lp27
S'Scott Chandler'
p28
a(lp29
F0.95999999999999996
aF9.1400000000000006
aaF5.0499999999999998
aF7.4500000000000002
aI3000
aS'CLE'
p30
aa(lp31
S'Andre Ellington'
p32
a(lp33
F7.8099999999999996
aF20.09
aaF13.949999999999999
aF17.600000000000001
aI6200
aS'ATL'
p34
aa(lp35
S'Jacksonville'
p36
a(lp37
F1.6399999999999999
aF17.32
aaF9.4800000000000004
aF9.1500000000000004
aI2300
aS'NYG'
p38
aaa(lp39
g3
ag7
a(lp40
S'Giovani Bernard'
p41
a(lp42
F3.1800000000000002
aF18.140000000000001
aaF10.66
aF14.44
aI5200
aS'TB'
p43
aa(lp44
S'Larry Fitzgerald'
p45
a(lp46
F3.0600000000000001
aF14.779999999999999
aaF8.9199999999999999
aF13.67
aI5300
aS'ATL'
p47
aag23
ag19
a(lp48
S'Jordan Reed'
p49
a(lp50
F0.66000000000000003
aF12.539999999999999
aaF5.9400000000000004
aF9.9299999999999997
aI3200
aS'IND'
p51
aag11
a(lp52
S'Carolina'
p53
a(lp54
F2.52
aF18.68
aaF10.6
aF10.039999999999999
aI2900
aS'MIN'
p55
aaa(lp56
g3
ag40
ag11
ag19
a(lp57
S'Steve Smith'
p58
a(lp59
F3.5800000000000001
aF14.98
aaF9.2799999999999994
aF14.19
aI5000
aS'SD'
p60
aa(lp61
S'Kelvin Benjamin'
p62
a(lp63
F3.5099999999999998
aF19.309999999999999
aaF11.41
aF16.710000000000001
aI6600
aS'MIN'
p64
aa(lp65
S'Julius Thomas'
p66
a(lp67
F2.5600000000000001
aF16.260000000000002
aaF9.4100000000000001
aF14.33
aI5200
aS'KC'
p68
aag48
a(lp69
S'New York Giants'
p70
a(lp71
F3.8900000000000001
aF22.91
aaF13.4
aF11.48
aI2800
aS'JAC'
p72
aaa(lp73
(lp74
S'Philip Rivers'
p75
a(lp76
F11.94
aF24.920000000000002
aaF18.43
aF19.27
aI6000
aS'BAL'
p77
aag11
ag7
ag19
ag57
ag23
ag65
ag31
a(lp78
S'Minnesota'
p79
a(lp80
F3.4700000000000002
aF18.57
aaF11.02
aF9.8200000000000003
aI2900
aS'CAR'
p81
aaa(lp82
(lp83
S'Tom Brady'
p84
a(lp85
F14.210000000000001
aF29.43
aaF21.82
aF26.050000000000001
aI8400
aS'GB'
p86
aag7
ag40
ag23
ag57
a(lp87
S'Sammy Watkins'
p88
a(lp89
F4.4100000000000001
aF15.970000000000001
aaF10.19
aF15.84
aI5800
aS'CLE'
p90
aag48
ag11
ag35
aa.