(lp1
(lp2
(lp3
S'Ryan Fitzpatrick'
p4
a(lp5
F7.4100000000000001
aF19.449999999999999
aaF13.43
aF14.529999999999999
aI5400
aS'TEN'
p6
aa(lp7
S'Mark Ingram'
p8
a(lp9
F4.4800000000000004
aF19.68
aaF12.08
aF13.44
aI6800
aS'PIT'
p10
aa(lp11
S'Fred Jackson'
p12
a(lp13
F5.0499999999999998
aF16.710000000000001
aaF10.880000000000001
aF14.140000000000001
aI5300
aS'CLE'
p14
aa(lp15
S'Percy Harvin'
p16
a(lp17
F1.3
aF14.92
aaF8.1099999999999994
aF13.300000000000001
aI5000
aS'MIA'
p18
aa(lp19
S'Julio Jones'
p20
a(lp21
F4.8700000000000001
aF16.809999999999999
aaF10.84
aF17.649999999999999
aI7200
aS'ARI'
p22
aa(lp23
S'Odell Beckham'
p24
a(lp25
F2.6400000000000001
aF17.739999999999998
aaF10.19
aF15.289999999999999
aI6800
aS'JAC'
p26
aa(lp27
S'Delanie Walker'
p28
a(lp29
F0.55000000000000004
aF11.449999999999999
aaF6
aF9.1400000000000006
aI4800
aS'HOU'
p30
aa(lp31
S'Alfred Morris'
p32
a(lp33
F4.7599999999999998
aF19.420000000000002
aaF12.09
aF13.130000000000001
aI5500
aS'IND'
p34
aa(lp35
S'Houston'
p36
a(lp37
F4.2400000000000002
aF20.600000000000001
aaF12.42
aF10.960000000000001
aI3100
aS'TEN'
p38
aaa(lp39
(lp40
S'Drew Brees'
p41
a(lp42
F14.710000000000001
aF30.489999999999998
aaF22.600000000000001
aF26.93
aI8500
aS'PIT'
p43
aag31
a(lp44
S'C.J. Anderson'
p45
a(lp46
F4.3399999999999999
aF21.460000000000001
aaF12.9
aF16.460000000000001
aI6900
aS'KC'
p47
aa(lp48
S'Torrey Smith'
p49
a(lp50
F0.16
aF17.5
aaF8.8300000000000001
aF11.93
aI5500
aS'SD'
p51
aa(lp52
S'Randall Cobb'
p53
a(lp54
F2.4399999999999999
aF19.059999999999999
aaF10.75
aF16.199999999999999
aI7500
aS'NE'
p55
aa(lp56
S'DeSean Jackson'
p57
a(lp58
F2.8300000000000001
aF13.73
aaF8.2799999999999994
aF12.19
aI5900
aS'IND'
p59
aa(lp60
S'Heath Miller'
p61
a(lp62
F0.93999999999999995
aF11.52
aaF6.2300000000000004
aF9.7200000000000006
aI3800
aS'NO'
p63
aa(lp64
S'Scott Chandler'
p65
a(lp66
F0.95999999999999996
aF9.1400000000000006
aaF5.0499999999999998
aF7.4500000000000002
aI3000
aS'CLE'
p67
aa(lp68
S'Indianapolis'
p69
a(lp70
F0.28000000000000003
aF16.800000000000001
aaF8.5399999999999991
aF8.5999999999999996
aI3200
aS'WSH'
p71
aaa(lp72
(lp73
S'Colt McCoy'
p74
a(lp75
F8.4299999999999997
aF18.890000000000001
aaF13.66
aF14.67
aI5000
aS'IND'
p76
aa(lp77
S'Jamaal Charles'
p78
a(lp79
F5.7699999999999996
aF23.870000000000001
aaF14.82
aF19.399999999999999
aI8600
aS'DEN'
p80
aa(lp81
S'Giovani Bernard'
p82
a(lp83
F3.1800000000000002
aF18.140000000000001
aaF10.66
aF14.44
aI5200
aS'TB'
p84
aa(lp85
S'Larry Fitzgerald'
p86
a(lp87
F3.0600000000000001
aF14.779999999999999
aaF8.9199999999999999
aF13.67
aI5300
aS'ATL'
p88
aa(lp89
S'Demaryius Thomas'
p90
a(lp91
F4.1100000000000003
aF20.949999999999999
aaF12.529999999999999
aF18.75
aI9500
aS'KC'
p92
aa(lp93
S'Marques Colston'
p94
a(lp95
F4.1100000000000003
aF14.85
aaF9.4800000000000004
aF14.34
aI4800
aS'PIT'
p96
aa(lp97
S'Jordan Reed'
p98
a(lp99
F0.66000000000000003
aF12.539999999999999
aaF5.9400000000000004
aF9.9299999999999997
aI3200
aS'IND'
p100
aa(lp101
S'Jeremy Hill'
p102
a(lp103
F2.48
aF13.52
aaF8
aF10.19
aI5300
aS'TB'
p104
aa(lp105
S'Carolina'
p106
a(lp107
F2.52
aF18.68
aaF10.6
aF10.039999999999999
aI2900
aS'MIN'
p108
aaa(lp109
(lp110
S'Teddy Bridgewater'
p111
a(lp112
F7.1500000000000004
aF22.309999999999999
aaF14.73
aF15.94
aI5400
aS'CAR'
p113
aag44
a(lp114
S'Andre Ellington'
p115
a(lp116
F7.8099999999999996
aF20.09
aaF13.949999999999999
aF17.600000000000001
aI6200
aS'ATL'
p117
aag15
a(lp118
S'Jordy Nelson'
p119
a(lp120
F4.3799999999999999
aF19.239999999999998
aaF11.81
aF17.879999999999999
aI8400
aS'NE'
p121
aa(lp122
S'Mike Wallace'
p123
a(lp124
F3.21
aF15.99
aaF9.5999999999999996
aF15.08
aI4600
aS'NYJ'
p125
aag97
a(lp126
S'Rob Gronkowski'
p127
a(lp128
F5.1799999999999997
aF14.16
aaF9.6699999999999999
aF15.19
aI7800
aS'GB'
p129
aa(lp130
S'Oakland'
p131
a(lp132
F2.1699999999999999
aF19.050000000000001
aaF10.609999999999999
aF9.2599999999999998
aI2500
aS'STL'
p133
aaa(lp134
(lp135
S'Ryan Tannehill'
p136
a(lp137
F10.949999999999999
aF23.75
aaF17.350000000000001
aF18.649999999999999
aI6900
aS'NYJ'
p138
aa(lp139
S"Le'Veon Bell"
p140
a(lp141
F9.5399999999999991
aF30.5
aaF20.02
aF24.620000000000001
aI8700
aS'NO'
p142
aa(lp143
S'Eddie Lacy'
p144
a(lp145
F5.9900000000000002
aF19.969999999999999
aaF12.98
aF16.600000000000001
aI7300
aS'NE'
p146
aag122
ag85
a(lp147
S'Mohamed Sanu'
p148
a(lp149
F3.8599999999999999
aF14.720000000000001
aaF9.2899999999999991
aF13.84
aI5200
aS'TB'
p150
aag27
a(lp151
S'Antonio Gates'
p152
a(lp153
F1.8999999999999999
aF13.76
aaF7.8300000000000001
aF11.75
aI4200
aS'BAL'
p154
aa(lp155
S'Cleveland'
p156
a(lp157
F2.79
aF16.73
aaF9.7599999999999998
aF8.7799999999999994
aI3000
aS'BUF'
p158
aaa.