(lp1
(lp2
(lp3
S'Ryan Tannehill'
p4
a(lp5
F10.949999999999999
aF23.75
aaF17.350000000000001
aF18.649999999999999
aI6900
aS'NYJ'
p6
aa(lp7
S'Alfred Morris'
p8
a(lp9
F4.7599999999999998
aF19.420000000000002
aaF12.09
aF13.130000000000001
aI5500
aS'IND'
p10
aa(lp11
S'Isaiah Crowell'
p12
a(lp13
F0.28999999999999998
aF17.030000000000001
aaF8.3699999999999992
aF10.31
aI4600
aS'BUF'
p14
aa(lp15
S'Emmanuel Sanders'
p16
a(lp17
F5.1699999999999999
aF17.93
aaF11.550000000000001
aF17.34
aI8700
aS'KC'
p18
aa(lp19
S'Marques Colston'
p20
a(lp21
F4.1100000000000003
aF14.85
aaF9.4800000000000004
aF14.34
aI4800
aS'PIT'
p22
aa(lp23
S'Kelvin Benjamin'
p24
a(lp25
F3.5099999999999998
aF19.309999999999999
aaF11.41
aF16.710000000000001
aI6600
aS'MIN'
p26
aa(lp27
S'Coby Fleener'
p28
a(lp29
F0.70999999999999996
aF12.449999999999999
aaF6.5800000000000001
aF9.7699999999999996
aI4700
aS'WSH'
p30
aa(lp31
S'Shane Vereen'
p32
a(lp33
F3.7799999999999998
aF15.720000000000001
aaF9.75
aF13.16
aI5400
aS'GB'
p34
aa(lp35
S'New York Giants'
p36
a(lp37
F3.8900000000000001
aF22.91
aaF13.4
aF11.48
aI2800
aS'JAC'
p38
aaa(lp39
(lp40
S'Colt McCoy'
p41
a(lp42
F8.4299999999999997
aF18.890000000000001
aaF13.66
aF14.67
aI5000
aS'IND'
p43
aa(lp44
S'Giovani Bernard'
p45
a(lp46
F3.1800000000000002
aF18.140000000000001
aaF10.66
aF14.44
aI5200
aS'TB'
p47
aa(lp48
S'Rashad Jennings'
p49
a(lp50
F1.51
aF22.210000000000001
aaF11.859999999999999
aF15.02
aI6700
aS'JAC'
p51
aa(lp52
S'Keenan Allen'
p53
a(lp54
F2.7400000000000002
aF15.640000000000001
aaF9.1899999999999995
aF14.550000000000001
aI6000
aS'BAL'
p55
aag19
a(lp56
S'Demaryius Thomas'
p57
a(lp58
F4.1100000000000003
aF20.949999999999999
aaF12.529999999999999
aF18.75
aI9500
aS'KC'
p59
aa(lp60
S'Jimmy Graham'
p61
a(lp62
F3.6699999999999999
aF15.73
aaF9.6999999999999993
aF14.82
aI7100
aS'PIT'
p63
aa(lp64
S'Jordan Reed'
p65
a(lp66
F0.66000000000000003
aF12.539999999999999
aaF5.9400000000000004
aF9.9299999999999997
aI3200
aS'IND'
p67
aa(lp68
S'Oakland'
p69
a(lp70
F2.1699999999999999
aF19.050000000000001
aaF10.609999999999999
aF9.2599999999999998
aI2500
aS'STL'
p71
aaa(lp72
(lp73
S'Ben Roethlisberger'
p74
a(lp75
F12.16
aF27.5
aaF19.829999999999998
aF20.629999999999999
aI7600
aS'NO'
p76
aa(lp77
S'Denard Robinson'
p78
a(lp79
F1.4199999999999999
aF15.220000000000001
aaF8.3200000000000003
aF10.57
aI6000
aS'NYG'
p80
aa(lp81
S'Lamar Miller'
p82
a(lp83
F5.8099999999999996
aF21.050000000000001
aaF13.43
aF17.289999999999999
aI4500
aS'NYJ'
p84
aa(lp85
S'Sammy Watkins'
p86
a(lp87
F4.4100000000000001
aF15.970000000000001
aaF10.19
aF15.84
aI5800
aS'CLE'
p88
aa(lp89
S'Randall Cobb'
p90
a(lp91
F2.4399999999999999
aF19.059999999999999
aaF10.75
aF16.199999999999999
aI7500
aS'NE'
p92
aa(lp93
S'DeSean Jackson'
p94
a(lp95
F2.8300000000000001
aF13.73
aaF8.2799999999999994
aF12.19
aI5900
aS'IND'
p96
aag64
a(lp97
S'Julian Edelman'
p98
a(lp99
F4.0099999999999998
aF14.59
aaF9.3000000000000007
aF16
aI6200
aS'GB'
p100
aa(lp101
S'Cleveland'
p102
a(lp103
F2.79
aF16.73
aaF9.7599999999999998
aF8.7799999999999994
aI3000
aS'BUF'
p104
aaa(lp105
(lp106
S'Kyle Orton'
p107
a(lp108
F8.3499999999999996
aF20.329999999999998
aaF14.34
aF16.059999999999999
aI5700
aS'CLE'
p109
aa(lp110
S"Le'Veon Bell"
p111
a(lp112
F9.5399999999999991
aF30.5
aaF20.02
aF24.620000000000001
aI8700
aS'NO'
p113
aa(lp114
S'Andre Ellington'
p115
a(lp116
F7.8099999999999996
aF20.09
aaF13.949999999999999
aF17.600000000000001
aI6200
aS'ATL'
p117
aag52
a(lp118
S'Brandon LaFell'
p119
a(lp120
F2.5
aF14.44
aaF8.4700000000000006
aF13.720000000000001
aI6100
aS'GB'
p121
aag97
a(lp122
S'Kyle Rudolph'
p123
a(lp124
F0.55000000000000004
aF11.529999999999999
aaF5.4900000000000002
aF8.25
aI3400
aS'CAR'
p125
aa(lp126
S'Andre Johnson'
p127
a(lp128
F3.29
aF14.289999999999999
aaF8.7899999999999991
aF14.380000000000001
aI4900
aS'TEN'
p129
aa(lp130
S'Denver'
p131
a(lp132
F2.0800000000000001
aF13.4
aaF7.7400000000000002
aF7.0199999999999996
aI2800
aS'KC'
p133
aaa(lp134
(lp135
S'Teddy Bridgewater'
p136
a(lp137
F7.1500000000000004
aF22.309999999999999
aaF14.73
aF15.94
aI5400
aS'CAR'
p138
aa(lp139
S'Jamaal Charles'
p140
a(lp141
F5.7699999999999996
aF23.870000000000001
aaF14.82
aF19.399999999999999
aI8600
aS'DEN'
p142
aa(lp143
S'Justin Forsett'
p144
a(lp145
F6.9199999999999999
aF21.719999999999999
aaF14.32
aF18.52
aI6300
aS'SD'
p146
aa(lp147
S'Roddy White'
p148
a(lp149
F3.96
aF15.699999999999999
aaF9.8300000000000001
aF15.42
aI6400
aS'ARI'
p150
aag97
ag85
a(lp151
S'Scott Chandler'
p152
a(lp153
F0.95999999999999996
aF9.1400000000000006
aaF5.0499999999999998
aF7.4500000000000002
aI3000
aS'CLE'
p154
aa(lp155
S'Mohamed Sanu'
p156
a(lp157
F3.8599999999999999
aF14.720000000000001
aaF9.2899999999999991
aF13.84
aI5200
aS'TB'
p158
aa(lp159
S'Houston'
p160
a(lp161
F4.2400000000000002
aF20.600000000000001
aaF12.42
aF10.960000000000001
aI3100
aS'TEN'
p162
aaa.