(lp1
(lp2
(lp3
S'Tom Brady'
p4
a(lp5
F14.210000000000001
aF29.43
aaF21.82
aF26.050000000000001
aI8400
aS'GB'
p6
aa(lp7
S'Eddie Lacy'
p8
a(lp9
F5.9900000000000002
aF19.969999999999999
aaF12.98
aF16.600000000000001
aI7300
aS'NE'
p10
aa(lp11
S'Andre Ellington'
p12
a(lp13
F7.8099999999999996
aF20.09
aaF13.949999999999999
aF17.600000000000001
aI6200
aS'ATL'
p14
aa(lp15
S'Mike Wallace'
p16
a(lp17
F3.21
aF15.99
aaF9.5999999999999996
aF15.08
aI4600
aS'NYJ'
p18
aa(lp19
S'Julian Edelman'
p20
a(lp21
F4.0099999999999998
aF14.59
aaF9.3000000000000007
aF16
aI6200
aS'GB'
p22
aa(lp23
S'Larry Fitzgerald'
p24
a(lp25
F3.0600000000000001
aF14.779999999999999
aaF8.9199999999999999
aF13.67
aI5300
aS'ATL'
p26
aa(lp27
S'Travis Kelce'
p28
a(lp29
F2.1400000000000001
aF13.380000000000001
aaF7.7599999999999998
aF11.59
aI4300
aS'DEN'
p30
aa(lp31
S'Lamar Miller'
p32
a(lp33
F5.8099999999999996
aF21.050000000000001
aaF13.43
aF17.289999999999999
aI4500
aS'NYJ'
p34
aa(lp35
S'Miami'
p36
a(lp37
F3.1800000000000002
aF21.219999999999999
aaF12.199999999999999
aF10.890000000000001
aI3200
aS'NYJ'
p38
aaa(lp39
g3
ag11
a(lp40
S'C.J. Anderson'
p41
a(lp42
F4.3399999999999999
aF21.460000000000001
aaF12.9
aF16.460000000000001
aI6900
aS'KC'
p43
aa(lp44
S'Roddy White'
p45
a(lp46
F3.96
aF15.699999999999999
aaF9.8300000000000001
aF15.42
aI6400
aS'ARI'
p47
aag23
ag15
ag27
ag31
ag35
aa(lp48
g3
ag31
ag40
ag44
ag23
ag15
ag27
ag11
ag35
aa(lp49
g3
ag11
ag40
ag15
ag23
ag44
ag27
ag31
ag35
aa(lp50
g3
ag31
ag11
ag15
ag44
ag23
ag27
ag40
ag35
aa.