(lp1
(lp2
(lp3
S'Tom Brady'
p4
a(lp5
F14.210000000000001
aF29.43
aaF21.82
aF26.050000000000001
aI8400
aS'GB'
p6
aa(lp7
S"Le'Veon Bell"
p8
a(lp9
F9.5399999999999991
aF30.5
aaF20.02
aF24.620000000000001
aI8700
aS'NO'
p10
aa(lp11
S'Marshawn Lynch'
p12
a(lp13
F8.2400000000000002
aF23.82
aaF16.030000000000001
aF20.079999999999998
aI6400
aS'SF'
p14
aa(lp15
S'Steve Smith'
p16
a(lp17
F3.5800000000000001
aF14.98
aaF9.2799999999999994
aF14.19
aI5000
aS'SD'
p18
aa(lp19
S'Anquan Boldin'
p20
a(lp21
F4.21
aF18.550000000000001
aaF11.380000000000001
aF17.280000000000001
aI5700
aS'SEA'
p22
aa(lp23
S'Sammy Watkins'
p24
a(lp25
F4.4100000000000001
aF15.970000000000001
aaF10.19
aF15.84
aI5800
aS'CLE'
p26
aa(lp27
S'Antonio Gates'
p28
a(lp29
F1.8999999999999999
aF13.76
aaF7.8300000000000001
aF11.75
aI4200
aS'BAL'
p30
aa(lp31
S'Jordan Reed'
p32
a(lp33
F0.66000000000000003
aF12.539999999999999
aaF5.9400000000000004
aF9.9299999999999997
aI3200
aS'IND'
p34
aa(lp35
S'Oakland'
p36
a(lp37
F2.1699999999999999
aF19.050000000000001
aaF10.609999999999999
aF9.2599999999999998
aI2500
aS'STL'
p38
aaa(lp39
g3
a(lp40
S'Justin Forsett'
p41
a(lp42
F6.9199999999999999
aF21.719999999999999
aaF14.32
aF18.52
aI6300
aS'SD'
p43
aa(lp44
S'Giovani Bernard'
p45
a(lp46
F3.1800000000000002
aF18.140000000000001
aaF10.66
aF14.44
aI5200
aS'TB'
p47
aa(lp48
S'Marques Colston'
p49
a(lp50
F4.1100000000000003
aF14.85
aaF9.4800000000000004
aF14.34
aI4800
aS'PIT'
p51
aag23
ag19
ag27
ag11
a(lp52
S'Houston'
p53
a(lp54
F4.2400000000000002
aF20.600000000000001
aaF12.42
aF10.960000000000001
aI3100
aS'TEN'
p55
aaa(lp56
(lp57
S'Drew Stanton'
p58
a(lp59
F4.8700000000000001
aF25.309999999999999
aaF15.09
aF16.370000000000001
aI5000
aS'ATL'
p60
aag11
ag7
ag23
ag48
ag15
a(lp61
S'Julius Thomas'
p62
a(lp63
F2.5600000000000001
aF16.260000000000002
aaF9.4100000000000001
aF14.33
aI5200
aS'KC'
p64
aag40
a(lp65
S'New York Giants'
p66
a(lp67
F3.8900000000000001
aF22.91
aaF13.4
aF11.48
aI2800
aS'JAC'
p68
aaa(lp69
g3
ag11
ag40
a(lp70
S'Jeremy Maclin'
p71
a(lp72
F5.7300000000000004
aF18.710000000000001
aaF12.220000000000001
aF18.329999999999998
aI6800
aS'DAL'
p73
aag15
ag19
ag31
a(lp74
S'Fred Jackson'
p75
a(lp76
F5.0499999999999998
aF16.710000000000001
aaF10.880000000000001
aF14.140000000000001
aI5300
aS'CLE'
p77
aag65
aa(lp78
(lp79
S'Drew Brees'
p80
a(lp81
F14.710000000000001
aF30.489999999999998
aaF22.600000000000001
aF26.93
aI8500
aS'PIT'
p82
aag7
ag11
ag19
ag15
a(lp83
S'Larry Fitzgerald'
p84
a(lp85
F3.0600000000000001
aF14.779999999999999
aaF8.9199999999999999
aF13.67
aI5300
aS'ATL'
p86
aag31
a(lp87
S'Andre Johnson'
p88
a(lp89
F3.29
aF14.289999999999999
aaF8.7899999999999991
aF14.380000000000001
aI4900
aS'TEN'
p90
aa(lp91
S'Jacksonville'
p92
a(lp93
F1.6399999999999999
aF17.32
aaF9.4800000000000004
aF9.1500000000000004
aI2300
aS'NYG'
p94
aaa.