(lp1
(lp2
(lp3
S'Drew Brees'
p4
a(lp5
F14.710000000000001
aF30.489999999999998
aaF22.600000000000001
aF26.93
aI8500
aS'PIT'
p6
aa(lp7
S'Justin Forsett'
p8
a(lp9
F6.9199999999999999
aF21.719999999999999
aaF14.32
aF18.52
aI6300
aS'SD'
p10
aa(lp11
S'Lamar Miller'
p12
a(lp13
F5.8099999999999996
aF21.050000000000001
aaF13.43
aF17.289999999999999
aI4500
aS'NYJ'
p14
aa(lp15
S'Sammy Watkins'
p16
a(lp17
F4.4100000000000001
aF15.970000000000001
aaF10.19
aF15.84
aI5800
aS'CLE'
p18
aa(lp19
S'Marques Colston'
p20
a(lp21
F4.1100000000000003
aF14.85
aaF9.4800000000000004
aF14.34
aI4800
aS'PIT'
p22
aa(lp23
S'Andre Johnson'
p24
a(lp25
F3.29
aF14.289999999999999
aaF8.7899999999999991
aF14.380000000000001
aI4900
aS'TEN'
p26
aa(lp27
S'Jordan Reed'
p28
a(lp29
F0.66000000000000003
aF12.539999999999999
aaF5.9400000000000004
aF9.9299999999999997
aI3200
aS'IND'
p30
aa(lp31
S"Le'Veon Bell"
p32
a(lp33
F9.5399999999999991
aF30.5
aaF20.02
aF24.620000000000001
aI8700
aS'NO'
p34
aa(lp35
S'Houston'
p36
a(lp37
F4.2400000000000002
aF20.600000000000001
aaF12.42
aF10.960000000000001
aI3100
aS'TEN'
p38
aaa(lp39
g3
ag11
ag31
a(lp40
S'Julian Edelman'
p41
a(lp42
F4.0099999999999998
aF14.59
aaF9.3000000000000007
aF16
aI6200
aS'GB'
p43
aag19
a(lp44
S'Mike Wallace'
p45
a(lp46
F3.21
aF15.99
aaF9.5999999999999996
aF15.08
aI4600
aS'NYJ'
p47
aag27
a(lp48
S'Andre Ellington'
p49
a(lp50
F7.8099999999999996
aF20.09
aaF13.949999999999999
aF17.600000000000001
aI6200
aS'ATL'
p51
aa(lp52
S'Cincinnati'
p53
a(lp54
F4.4000000000000004
aF22.02
aaF13.210000000000001
aF11.050000000000001
aI3200
aS'TB'
p55
aaa(lp56
g3
ag7
ag11
a(lp57
S'Mohamed Sanu'
p58
a(lp59
F3.8599999999999999
aF14.720000000000001
aaF9.2899999999999991
aF13.84
aI5200
aS'TB'
p60
aag19
a(lp61
S'Steve Smith'
p62
a(lp63
F3.5800000000000001
aF14.98
aaF9.2799999999999994
aF14.19
aI5000
aS'SD'
p64
aa(lp65
S'Antonio Gates'
p66
a(lp67
F1.8999999999999999
aF13.76
aaF7.8300000000000001
aF11.75
aI4200
aS'BAL'
p68
aag31
a(lp69
S'New York Giants'
p70
a(lp71
F3.8900000000000001
aF22.91
aaF13.4
aF11.48
aI2800
aS'JAC'
p72
aaa(lp73
(lp74
S'Tom Brady'
p75
a(lp76
F14.210000000000001
aF29.43
aaF21.82
aF26.050000000000001
aI8400
aS'GB'
p77
aag48
ag11
ag23
ag44
a(lp78
S'Kelvin Benjamin'
p79
a(lp80
F3.5099999999999998
aF19.309999999999999
aaF11.41
aF16.710000000000001
aI6600
aS'MIN'
p81
aag27
ag31
ag69
aa(lp82
g3
ag7
ag31
ag23
ag44
ag61
a(lp83
S'Julius Thomas'
p84
a(lp85
F2.5600000000000001
aF16.260000000000002
aaF9.4100000000000001
aF14.33
aI5200
aS'KC'
p86
aag11
a(lp87
S'Jacksonville'
p88
a(lp89
F1.6399999999999999
aF17.32
aaF9.4800000000000004
aF9.1500000000000004
aI2300
aS'NYG'
p90
aaa.