(lp1
(lp2
(lp3
S'Drew Brees'
p4
a(lp5
F14.710000000000001
aF30.489999999999998
aaF22.600000000000001
aF26.93
aI8500
aS'PIT'
p6
aa(lp7
S"Le'Veon Bell"
p8
a(lp9
F9.5399999999999991
aF30.5
aaF20.02
aF24.620000000000001
aI8700
aS'NO'
p10
aa(lp11
S'Lamar Miller'
p12
a(lp13
F5.8099999999999996
aF21.050000000000001
aaF13.43
aF17.289999999999999
aI4500
aS'NYJ'
p14
aa(lp15
S'Larry Fitzgerald'
p16
a(lp17
F3.0600000000000001
aF14.779999999999999
aaF8.9199999999999999
aF13.67
aI5300
aS'ATL'
p18
aa(lp19
S'Percy Harvin'
p20
a(lp21
F1.3
aF14.92
aaF8.1099999999999994
aF13.300000000000001
aI5000
aS'MIA'
p22
aa(lp23
S'Mike Wallace'
p24
a(lp25
F3.21
aF15.99
aaF9.5999999999999996
aF15.08
aI4600
aS'NYJ'
p26
aa(lp27
S'Travis Kelce'
p28
a(lp29
F2.1400000000000001
aF13.380000000000001
aaF7.7599999999999998
aF11.59
aI4300
aS'DEN'
p30
aa(lp31
S'Justin Forsett'
p32
a(lp33
F6.9199999999999999
aF21.719999999999999
aaF14.32
aF18.52
aI6300
aS'SD'
p34
aa(lp35
S'New York Giants'
p36
a(lp37
F3.8900000000000001
aF22.91
aaF13.4
aF11.48
aI2800
aS'JAC'
p38
aaa(lp39
(lp40
S'Tom Brady'
p41
a(lp42
F14.210000000000001
aF29.43
aaF21.82
aF26.050000000000001
aI8400
aS'GB'
p43
aag7
ag11
a(lp44
S'Steve Smith'
p45
a(lp46
F3.5800000000000001
aF14.98
aaF9.2799999999999994
aF14.19
aI5000
aS'SD'
p47
aa(lp48
S'Mohamed Sanu'
p49
a(lp50
F3.8599999999999999
aF14.720000000000001
aaF9.2899999999999991
aF13.84
aI5200
aS'TB'
p51
aa(lp52
S'Marques Colston'
p53
a(lp54
F4.1100000000000003
aF14.85
aaF9.4800000000000004
aF14.34
aI4800
aS'PIT'
p55
aag27
a(lp56
S'Andre Ellington'
p57
a(lp58
F7.8099999999999996
aF20.09
aaF13.949999999999999
aF17.600000000000001
aI6200
aS'ATL'
p59
aag35
aa(lp60
(lp61
S'Philip Rivers'
p62
a(lp63
F11.94
aF24.920000000000002
aaF18.43
aF19.27
aI6000
aS'BAL'
p64
aag11
ag31
a(lp65
S'Kelvin Benjamin'
p66
a(lp67
F3.5099999999999998
aF19.309999999999999
aaF11.41
aF16.710000000000001
aI6600
aS'MIN'
p68
aag23
a(lp69
S'Andre Johnson'
p70
a(lp71
F3.29
aF14.289999999999999
aaF8.7899999999999991
aF14.380000000000001
aI4900
aS'TEN'
p72
aa(lp73
S'Julius Thomas'
p74
a(lp75
F2.5600000000000001
aF16.260000000000002
aaF9.4100000000000001
aF14.33
aI5200
aS'KC'
p76
aag7
a(lp77
S'Cincinnati'
p78
a(lp79
F4.4000000000000004
aF22.02
aaF13.210000000000001
aF11.050000000000001
aI3200
aS'TB'
p80
aaa(lp81
(lp82
S'Drew Brees'
p83
a(lp84
F14.710000000000001
aF30.489999999999998
aaF22.600000000000001
aF26.93
aI8500
aS'PIT'
p85
aa(lp86
S'Lamar Miller'
p87
a(lp88
F5.8099999999999996
aF21.050000000000001
aaF13.43
aF17.289999999999999
aI4500
aS'NYJ'
p89
aa(lp90
S'Justin Forsett'
p91
a(lp92
F6.9199999999999999
aF21.719999999999999
aaF14.32
aF18.52
aI6300
aS'SD'
p93
aa(lp94
S'Marques Colston'
p95
a(lp96
F4.1100000000000003
aF14.85
aaF9.4800000000000004
aF14.34
aI4800
aS'PIT'
p97
aa(lp98
S'Andre Johnson'
p99
a(lp100
F3.29
aF14.289999999999999
aaF8.7899999999999991
aF14.380000000000001
aI4900
aS'TEN'
p101
aa(lp102
S'Larry Fitzgerald'
p103
a(lp104
F3.0600000000000001
aF14.779999999999999
aaF8.9199999999999999
aF13.67
aI5300
aS'ATL'
p105
aa(lp106
S'Antonio Gates'
p107
a(lp108
F1.8999999999999999
aF13.76
aaF7.8300000000000001
aF11.75
aI4200
aS'BAL'
p109
aa(lp110
S"Le'Veon Bell"
p111
a(lp112
F9.5399999999999991
aF30.5
aaF20.02
aF24.620000000000001
aI8700
aS'NO'
p113
aa(lp114
S'New York Giants'
p115
a(lp116
F3.8900000000000001
aF22.91
aaF13.4
aF11.48
aI2800
aS'JAC'
p117
aaa(lp118
g3
ag7
ag11
ag15
ag23
ag44
ag27
ag56
ag35
aa.