(lp1
(lp2
(lp3
S'Drew Brees'
p4
a(lp5
F14.710000000000001
aF30.489999999999998
aaF22.600000000000001
aF26.93
aI8500
aS'PIT'
p6
aa(lp7
S"Le'Veon Bell"
p8
a(lp9
F9.5399999999999991
aF30.5
aaF20.02
aF24.620000000000001
aI8700
aS'NO'
p10
aa(lp11
S'Giovani Bernard'
p12
a(lp13
F3.1800000000000002
aF18.140000000000001
aaF10.66
aF14.44
aI5200
aS'TB'
p14
aa(lp15
S'Sammy Watkins'
p16
a(lp17
F4.4100000000000001
aF15.970000000000001
aaF10.19
aF15.84
aI5800
aS'CLE'
p18
aa(lp19
S'Marques Colston'
p20
a(lp21
F4.1100000000000003
aF14.85
aaF9.4800000000000004
aF14.34
aI4800
aS'PIT'
p22
aa(lp23
S'Mike Wallace'
p24
a(lp25
F3.21
aF15.99
aaF9.5999999999999996
aF15.08
aI4600
aS'NYJ'
p26
aa(lp27
S'Coby Fleener'
p28
a(lp29
F0.70999999999999996
aF12.449999999999999
aaF6.5800000000000001
aF9.7699999999999996
aI4700
aS'WSH'
p30
aa(lp31
S'Lamar Miller'
p32
a(lp33
F5.8099999999999996
aF21.050000000000001
aaF13.43
aF17.289999999999999
aI4500
aS'NYJ'
p34
aa(lp35
S'Houston'
p36
a(lp37
F4.2400000000000002
aF20.600000000000001
aaF12.42
aF10.960000000000001
aI3100
aS'TEN'
p38
aaa(lp39
(lp40
S'Tom Brady'
p41
a(lp42
F14.210000000000001
aF29.43
aaF21.82
aF26.050000000000001
aI8400
aS'GB'
p43
aa(lp44
S'Andre Ellington'
p45
a(lp46
F7.8099999999999996
aF20.09
aaF13.949999999999999
aF17.600000000000001
aI6200
aS'ATL'
p47
aag7
a(lp48
S'Percy Harvin'
p49
a(lp50
F1.3
aF14.92
aaF8.1099999999999994
aF13.300000000000001
aI5000
aS'MIA'
p51
aa(lp52
S'Kelvin Benjamin'
p53
a(lp54
F3.5099999999999998
aF19.309999999999999
aaF11.41
aF16.710000000000001
aI6600
aS'MIN'
p55
aag23
a(lp56
S'Scott Chandler'
p57
a(lp58
F0.95999999999999996
aF9.1400000000000006
aaF5.0499999999999998
aF7.4500000000000002
aI3000
aS'CLE'
p59
aag31
a(lp60
S'New York Giants'
p61
a(lp62
F3.8900000000000001
aF22.91
aaF13.4
aF11.48
aI2800
aS'JAC'
p63
aaa(lp64
g40
ag7
a(lp65
S'Ryan Mathews'
p66
a(lp67
F2.5499999999999998
aF19.829999999999998
aaF11.19
aF13.49
aI5100
aS'BAL'
p68
aag52
ag23
ag48
a(lp69
S'Travis Kelce'
p70
a(lp71
F2.1400000000000001
aF13.380000000000001
aaF7.7599999999999998
aF11.59
aI4300
aS'DEN'
p72
aag31
ag60
aa(lp73
g3
ag31
ag44
a(lp74
S'Larry Fitzgerald'
p75
a(lp76
F3.0600000000000001
aF14.779999999999999
aaF8.9199999999999999
aF13.67
aI5300
aS'ATL'
p77
aa(lp78
S'Julio Jones'
p79
a(lp80
F4.8700000000000001
aF16.809999999999999
aaF10.84
aF17.649999999999999
aI7200
aS'ARI'
p81
aag23
ag69
a(lp82
S'Justin Forsett'
p83
a(lp84
F6.9199999999999999
aF21.719999999999999
aaF14.32
aF18.52
aI6300
aS'SD'
p85
aag60
aa(lp86
g3
ag7
ag82
a(lp87
S'Roddy White'
p88
a(lp89
F3.96
aF15.699999999999999
aaF9.8300000000000001
aF15.42
aI6400
aS'ARI'
p90
aag23
ag19
ag56
ag31
a(lp91
S'Cincinnati'
p92
a(lp93
F4.4000000000000004
aF22.02
aaF13.210000000000001
aF11.050000000000001
aI3200
aS'TB'
p94
aaa.