(lp1
(lp2
(lp3
S'Andy Dalton'
p4
a(lp5
F11.17
aF24.129999999999999
aaF17.649999999999999
aF18.899999999999999
aI6100
aS'TB'
p6
aa(lp7
S"Le'Veon Bell"
p8
a(lp9
F9.5399999999999991
aF30.5
aaF20.02
aF24.620000000000001
aI8700
aS'NO'
p10
aa(lp11
S'Alfred Morris'
p12
a(lp13
F4.7599999999999998
aF19.420000000000002
aaF12.09
aF13.130000000000001
aI5500
aS'IND'
p14
aa(lp15
S'Sammy Watkins'
p16
a(lp17
F4.4100000000000001
aF15.970000000000001
aaF10.19
aF15.84
aI5800
aS'CLE'
p18
aa(lp19
S'Andre Johnson'
p20
a(lp21
F3.29
aF14.289999999999999
aaF8.7899999999999991
aF14.380000000000001
aI4900
aS'TEN'
p22
aa(lp23
S'Marques Colston'
p24
a(lp25
F4.1100000000000003
aF14.85
aaF9.4800000000000004
aF14.34
aI4800
aS'PIT'
p26
aa(lp27
S'Julius Thomas'
p28
a(lp29
F2.5600000000000001
aF16.260000000000002
aaF9.4100000000000001
aF14.33
aI5200
aS'KC'
p30
aa(lp31
S'Andre Ellington'
p32
a(lp33
F7.8099999999999996
aF20.09
aaF13.949999999999999
aF17.600000000000001
aI6200
aS'ATL'
p34
aa(lp35
S'New York Giants'
p36
a(lp37
F3.8900000000000001
aF22.91
aaF13.4
aF11.48
aI2800
aS'JAC'
p38
aaa(lp39
(lp40
S'Drew Stanton'
p41
a(lp42
F4.8700000000000001
aF25.309999999999999
aaF15.09
aF16.370000000000001
aI5000
aS'ATL'
p43
aa(lp44
S'Justin Forsett'
p45
a(lp46
F6.9199999999999999
aF21.719999999999999
aaF14.32
aF18.52
aI6300
aS'SD'
p47
aag7
a(lp48
S'Steve Smith'
p49
a(lp50
F3.5800000000000001
aF14.98
aaF9.2799999999999994
aF14.19
aI5000
aS'SD'
p51
aag23
ag15
ag27
ag31
ag35
aa(lp52
(lp53
S'Joe Flacco'
p54
a(lp55
F12.5
aF25.920000000000002
aaF19.210000000000001
aF19.809999999999999
aI6700
aS'SD'
p56
aag11
ag7
ag48
ag23
a(lp57
S'Kelvin Benjamin'
p58
a(lp59
F3.5099999999999998
aF19.309999999999999
aaF11.41
aF16.710000000000001
aI6600
aS'MIN'
p60
aa(lp61
S'Dwayne Allen'
p62
a(lp63
F1.71
aF10.27
aaF5.9900000000000002
aF8.5600000000000005
aI3600
aS'WSH'
p64
aag44
ag35
aa(lp65
(lp66
S'Philip Rivers'
p67
a(lp68
F11.94
aF24.920000000000002
aaF18.43
aF19.27
aI6000
aS'BAL'
p69
aa(lp70
S'Ryan Mathews'
p71
a(lp72
F2.5499999999999998
aF19.829999999999998
aaF11.19
aF13.49
aI5100
aS'BAL'
p73
aag31
ag23
a(lp74
S'Mohamed Sanu'
p75
a(lp76
F3.8599999999999999
aF14.720000000000001
aaF9.2899999999999991
aF13.84
aI5200
aS'TB'
p77
aag15
ag27
ag7
ag35
aa(lp78
(lp79
S'Drew Brees'
p80
a(lp81
F14.710000000000001
aF30.489999999999998
aaF22.600000000000001
aF26.93
aI8500
aS'PIT'
p82
aag7
ag11
ag74
ag48
ag23
a(lp83
S'Jordan Reed'
p84
a(lp85
F0.66000000000000003
aF12.539999999999999
aaF5.9400000000000004
aF9.9299999999999997
aI3200
aS'IND'
p86
aag31
ag35
aa.