(lp1
(lp2
(lp3
S'Kyle Orton'
p4
a(lp5
F8.3499999999999996
aF20.329999999999998
aaF14.34
aF16.059999999999999
aI5700
aS'CLE'
p6
aa(lp7
S'Giovani Bernard'
p8
a(lp9
F3.1800000000000002
aF18.140000000000001
aaF10.66
aF14.44
aI5200
aS'TB'
p10
aa(lp11
S'Alfred Morris'
p12
a(lp13
F4.7599999999999998
aF19.420000000000002
aaF12.09
aF13.130000000000001
aI5500
aS'IND'
p14
aa(lp15
S'Odell Beckham'
p16
a(lp17
F2.6400000000000001
aF17.739999999999998
aaF10.19
aF15.289999999999999
aI6800
aS'JAC'
p18
aa(lp19
S'Dez Bryant'
p20
a(lp21
F4.3700000000000001
aF18.469999999999999
aaF11.42
aF17.27
aI7900
aS'PHI'
p22
aa(lp23
S'Percy Harvin'
p24
a(lp25
F1.3
aF14.92
aaF8.1099999999999994
aF13.300000000000001
aI5000
aS'MIA'
p26
aa(lp27
S'Jordan Reed'
p28
a(lp29
F0.66000000000000003
aF12.539999999999999
aaF5.9400000000000004
aF9.9299999999999997
aI3200
aS'IND'
p30
aa(lp31
S'Eddie Lacy'
p32
a(lp33
F5.9900000000000002
aF19.969999999999999
aaF12.98
aF16.600000000000001
aI7300
aS'NE'
p34
aa(lp35
S'Miami'
p36
a(lp37
F3.1800000000000002
aF21.219999999999999
aaF12.199999999999999
aF10.890000000000001
aI3200
aS'NYJ'
p38
aaa(lp39
(lp40
S'Mark Sanchez'
p41
a(lp42
F11.51
aF24.550000000000001
aaF18.030000000000001
aF19.420000000000002
aI6800
aS'DAL'
p43
aa(lp44
S'C.J. Anderson'
p45
a(lp46
F4.3399999999999999
aF21.460000000000001
aaF12.9
aF16.460000000000001
aI6900
aS'KC'
p47
aa(lp48
S'Isaiah Crowell'
p49
a(lp50
F0.28999999999999998
aF17.030000000000001
aaF8.3699999999999992
aF10.31
aI4600
aS'BUF'
p51
aa(lp52
S'Kelvin Benjamin'
p53
a(lp54
F3.5099999999999998
aF19.309999999999999
aaF11.41
aF16.710000000000001
aI6600
aS'MIN'
p55
aag19
a(lp56
S'Jeremy Maclin'
p57
a(lp58
F5.7300000000000004
aF18.710000000000001
aaF12.220000000000001
aF18.329999999999998
aI6800
aS'DAL'
p59
aa(lp60
S'Dwayne Allen'
p61
a(lp62
F1.71
aF10.27
aaF5.9900000000000002
aF8.5600000000000005
aI3600
aS'WSH'
p63
aa(lp64
S'Reggie Bush'
p65
a(lp66
F4
aF14.640000000000001
aaF9.3200000000000003
aF12.210000000000001
aI4500
aS'CHI'
p67
aa(lp68
S'Jacksonville'
p69
a(lp70
F1.6399999999999999
aF17.32
aaF9.4800000000000004
aF9.1500000000000004
aI2300
aS'NYG'
p71
aaa(lp72
(lp73
S'Teddy Bridgewater'
p74
a(lp75
F7.1500000000000004
aF22.309999999999999
aaF14.73
aF15.94
aI5400
aS'CAR'
p76
aa(lp77
S'DeMarco Murray'
p78
a(lp79
F8.0700000000000003
aF26.23
aaF17.149999999999999
aF20.84
aI8400
aS'PHI'
p80
aa(lp81
S'Marshawn Lynch'
p82
a(lp83
F8.2400000000000002
aF23.82
aaF16.030000000000001
aF20.079999999999998
aI6400
aS'SF'
p84
aa(lp85
S'Sammy Watkins'
p86
a(lp87
F4.4100000000000001
aF15.970000000000001
aaF10.19
aF15.84
aI5800
aS'CLE'
p88
aa(lp89
S'Torrey Smith'
p90
a(lp91
F0.16
aF17.5
aaF8.8300000000000001
aF11.93
aI5500
aS'SD'
p92
aag23
a(lp93
S'Antonio Gates'
p94
a(lp95
F1.8999999999999999
aF13.76
aaF7.8300000000000001
aF11.75
aI4200
aS'BAL'
p96
aa(lp97
S'Roddy White'
p98
a(lp99
F3.96
aF15.699999999999999
aaF9.8300000000000001
aF15.42
aI6400
aS'ARI'
p100
aa(lp101
S'Minnesota'
p102
a(lp103
F3.4700000000000002
aF18.57
aaF11.02
aF9.8200000000000003
aI2900
aS'CAR'
p104
aaa(lp105
(lp106
S'Ryan Tannehill'
p107
a(lp108
F10.949999999999999
aF23.75
aaF17.350000000000001
aF18.649999999999999
aI6900
aS'NYJ'
p109
aa(lp110
S'Lamar Miller'
p111
a(lp112
F5.8099999999999996
aF21.050000000000001
aaF13.43
aF17.289999999999999
aI4500
aS'NYJ'
p113
aa(lp114
S'Justin Forsett'
p115
a(lp116
F6.9199999999999999
aF21.719999999999999
aaF14.32
aF18.52
aI6300
aS'SD'
p117
aa(lp118
S'Alshon Jeffery'
p119
a(lp120
F3.2000000000000002
aF16.98
aaF10.09
aF16.129999999999999
aI6300
aS'DET'
p121
aa(lp122
S'Steve Smith'
p123
a(lp124
F3.5800000000000001
aF14.98
aaF9.2799999999999994
aF14.19
aI5000
aS'SD'
p125
aa(lp126
S'Anquan Boldin'
p127
a(lp128
F4.21
aF18.550000000000001
aaF11.380000000000001
aF17.280000000000001
aI5700
aS'SEA'
p129
aa(lp130
S'Coby Fleener'
p131
a(lp132
F0.70999999999999996
aF12.449999999999999
aaF6.5800000000000001
aF9.7699999999999996
aI4700
aS'WSH'
p133
aa(lp134
S'Mike Evans'
p135
a(lp136
F3.4300000000000002
aF18.309999999999999
aaF10.869999999999999
aF16.329999999999998
aI7300
aS'CIN'
p137
aa(lp138
S'Houston'
p139
a(lp140
F4.2400000000000002
aF20.600000000000001
aaF12.42
aF10.960000000000001
aI3100
aS'TEN'
p141
aaa(lp142
(lp143
S'Andy Dalton'
p144
a(lp145
F11.17
aF24.129999999999999
aaF17.649999999999999
aF18.899999999999999
aI6100
aS'TB'
p146
aag114
ag110
a(lp147
S'Mohamed Sanu'
p148
a(lp149
F3.8599999999999999
aF14.720000000000001
aaF9.2899999999999991
aF13.84
aI5200
aS'TB'
p150
aa(lp151
S'Josh Gordon'
p152
a(lp153
F1.22
aF18.719999999999999
aaF9.9700000000000006
aF15
aI8300
aS'BUF'
p154
aa(lp155
S'Mike Wallace'
p156
a(lp157
F3.21
aF15.99
aaF9.5999999999999996
aF15.08
aI4600
aS'NYJ'
p158
aa(lp159
S'Kyle Rudolph'
p160
a(lp161
F0.55000000000000004
aF11.529999999999999
aaF5.4900000000000002
aF8.25
aI3400
aS'CAR'
p162
aa(lp163
S"Le'Veon Bell"
p164
a(lp165
F9.5399999999999991
aF30.5
aaF20.02
aF24.620000000000001
aI8700
aS'NO'
p166
aag101
aa.