(lp1
(lp2
(lp3
S'Drew Brees'
p4
a(lp5
F14.710000000000001
aF30.489999999999998
aaF22.600000000000001
aF26.93
aI8500
aS'PIT'
p6
aa(lp7
S"Le'Veon Bell"
p8
a(lp9
F9.5399999999999991
aF30.5
aaF20.02
aF24.620000000000001
aI8700
aS'NO'
p10
aa(lp11
S'Lamar Miller'
p12
a(lp13
F5.8099999999999996
aF21.050000000000001
aaF13.43
aF17.289999999999999
aI4500
aS'NYJ'
p14
aa(lp15
S'Percy Harvin'
p16
a(lp17
F1.3
aF14.92
aaF8.1099999999999994
aF13.300000000000001
aI5000
aS'MIA'
p18
aa(lp19
S'Marques Colston'
p20
a(lp21
F4.1100000000000003
aF14.85
aaF9.4800000000000004
aF14.34
aI4800
aS'PIT'
p22
aa(lp23
S'Mike Wallace'
p24
a(lp25
F3.21
aF15.99
aaF9.5999999999999996
aF15.08
aI4600
aS'NYJ'
p26
aa(lp27
S'Julius Thomas'
p28
a(lp29
F2.5600000000000001
aF16.260000000000002
aaF9.4100000000000001
aF14.33
aI5200
aS'KC'
p30
aa(lp31
S'Alfred Morris'
p32
a(lp33
F4.7599999999999998
aF19.420000000000002
aaF12.09
aF13.130000000000001
aI5500
aS'IND'
p34
aa(lp35
S'Cincinnati'
p36
a(lp37
F4.4000000000000004
aF22.02
aaF13.210000000000001
aF11.050000000000001
aI3200
aS'TB'
p38
aaa(lp39
(lp40
S'Drew Brees'
p41
a(lp42
F14.710000000000001
aF30.489999999999998
aaF22.600000000000001
aF26.93
aI8500
aS'PIT'
p43
aa(lp44
S"Le'Veon Bell"
p45
a(lp46
F9.5399999999999991
aF30.5
aaF20.02
aF24.620000000000001
aI8700
aS'NO'
p47
aa(lp48
S'Lamar Miller'
p49
a(lp50
F5.8099999999999996
aF21.050000000000001
aaF13.43
aF17.289999999999999
aI4500
aS'NYJ'
p51
aa(lp52
S'Larry Fitzgerald'
p53
a(lp54
F3.0600000000000001
aF14.779999999999999
aaF8.9199999999999999
aF13.67
aI5300
aS'ATL'
p55
aa(lp56
S'Percy Harvin'
p57
a(lp58
F1.3
aF14.92
aaF8.1099999999999994
aF13.300000000000001
aI5000
aS'MIA'
p59
aa(lp60
S'Mike Wallace'
p61
a(lp62
F3.21
aF15.99
aaF9.5999999999999996
aF15.08
aI4600
aS'NYJ'
p63
aa(lp64
S'Travis Kelce'
p65
a(lp66
F2.1400000000000001
aF13.380000000000001
aaF7.7599999999999998
aF11.59
aI4300
aS'DEN'
p67
aa(lp68
S'Justin Forsett'
p69
a(lp70
F6.9199999999999999
aF21.719999999999999
aaF14.32
aF18.52
aI6300
aS'SD'
p71
aa(lp72
S'New York Giants'
p73
a(lp74
F3.8900000000000001
aF22.91
aaF13.4
aF11.48
aI2800
aS'JAC'
p75
aaa(lp76
(lp77
S'Tom Brady'
p78
a(lp79
F14.210000000000001
aF29.43
aaF21.82
aF26.050000000000001
aI8400
aS'GB'
p80
aag44
ag48
a(lp81
S'Steve Smith'
p82
a(lp83
F3.5800000000000001
aF14.98
aaF9.2799999999999994
aF14.19
aI5000
aS'SD'
p84
aa(lp85
S'Mohamed Sanu'
p86
a(lp87
F3.8599999999999999
aF14.720000000000001
aaF9.2899999999999991
aF13.84
aI5200
aS'TB'
p88
aa(lp89
S'Marques Colston'
p90
a(lp91
F4.1100000000000003
aF14.85
aaF9.4800000000000004
aF14.34
aI4800
aS'PIT'
p92
aag64
a(lp93
S'Andre Ellington'
p94
a(lp95
F7.8099999999999996
aF20.09
aaF13.949999999999999
aF17.600000000000001
aI6200
aS'ATL'
p96
aag72
aa(lp97
(lp98
S'Philip Rivers'
p99
a(lp100
F11.94
aF24.920000000000002
aaF18.43
aF19.27
aI6000
aS'BAL'
p101
aag48
ag68
a(lp102
S'Kelvin Benjamin'
p103
a(lp104
F3.5099999999999998
aF19.309999999999999
aaF11.41
aF16.710000000000001
aI6600
aS'MIN'
p105
aag60
a(lp106
S'Andre Johnson'
p107
a(lp108
F3.29
aF14.289999999999999
aaF8.7899999999999991
aF14.380000000000001
aI4900
aS'TEN'
p109
aa(lp110
S'Julius Thomas'
p111
a(lp112
F2.5600000000000001
aF16.260000000000002
aaF9.4100000000000001
aF14.33
aI5200
aS'KC'
p113
aag44
a(lp114
S'Cincinnati'
p115
a(lp116
F4.4000000000000004
aF22.02
aaF13.210000000000001
aF11.050000000000001
aI3200
aS'TB'
p117
aaa(lp118
g40
ag44
ag48
ag52
ag60
ag81
ag64
ag93
ag72
aa.