(lp1
(lp2
(lp3
S'Tom Brady'
p4
a(lp5
F14.210000000000001
aF29.43
aaF21.82
aF26.050000000000001
aI8400
aS'GB'
p6
aa(lp7
S'Marshawn Lynch'
p8
a(lp9
F8.2400000000000002
aF23.82
aaF16.030000000000001
aF20.079999999999998
aI6400
aS'SF'
p10
aa(lp11
S"Le'Veon Bell"
p12
a(lp13
F9.5399999999999991
aF30.5
aaF20.02
aF24.620000000000001
aI8700
aS'NO'
p14
aa(lp15
S'Percy Harvin'
p16
a(lp17
F1.3
aF14.92
aaF8.1099999999999994
aF13.300000000000001
aI5000
aS'MIA'
p18
aa(lp19
S'Golden Tate'
p20
a(lp21
F4.5999999999999996
aF16.940000000000001
aaF10.77
aF16.539999999999999
aI6600
aS'CHI'
p22
aa(lp23
S'Mike Wallace'
p24
a(lp25
F3.21
aF15.99
aaF9.5999999999999996
aF15.08
aI4600
aS'NYJ'
p26
aa(lp27
S'Scott Chandler'
p28
a(lp29
F0.95999999999999996
aF9.1400000000000006
aaF5.0499999999999998
aF7.4500000000000002
aI3000
aS'CLE'
p30
aa(lp31
S'Lamar Miller'
p32
a(lp33
F5.8099999999999996
aF21.050000000000001
aaF13.43
aF17.289999999999999
aI4500
aS'NYJ'
p34
aa(lp35
S'New York Giants'
p36
a(lp37
F3.8900000000000001
aF22.91
aaF13.4
aF11.48
aI2800
aS'JAC'
p38
aaa(lp39
g3
ag31
ag11
ag15
a(lp40
S'Brandon Marshall'
p41
a(lp42
F2.5800000000000001
aF18.940000000000001
aaF10.76
aF15.93
aI6400
aS'DET'
p43
aag23
a(lp44
S'Jordan Reed'
p45
a(lp46
F0.66000000000000003
aF12.539999999999999
aaF5.9400000000000004
aF9.9299999999999997
aI3200
aS'IND'
p47
aa(lp48
S'Justin Forsett'
p49
a(lp50
F6.9199999999999999
aF21.719999999999999
aaF14.32
aF18.52
aI6300
aS'SD'
p51
aag35
aa(lp52
(lp53
S'Drew Brees'
p54
a(lp55
F14.710000000000001
aF30.489999999999998
aaF22.600000000000001
aF26.93
aI8500
aS'PIT'
p56
aa(lp57
S'Andre Ellington'
p58
a(lp59
F7.8099999999999996
aF20.09
aaF13.949999999999999
aF17.600000000000001
aI6200
aS'ATL'
p60
aag31
a(lp61
S'Andre Johnson'
p62
a(lp63
F3.29
aF14.289999999999999
aaF8.7899999999999991
aF14.380000000000001
aI4900
aS'TEN'
p64
aa(lp65
S'Julian Edelman'
p66
a(lp67
F4.0099999999999998
aF14.59
aaF9.3000000000000007
aF16
aI6200
aS'GB'
p68
aag23
a(lp69
S'Julius Thomas'
p70
a(lp71
F2.5600000000000001
aF16.260000000000002
aaF9.4100000000000001
aF14.33
aI5200
aS'KC'
p72
aag7
a(lp73
S'Cincinnati'
p74
a(lp75
F4.4000000000000004
aF22.02
aaF13.210000000000001
aF11.050000000000001
aI3200
aS'TB'
p76
aaa(lp77
g3
ag31
ag7
ag23
a(lp78
S'Marques Colston'
p79
a(lp80
F4.1100000000000003
aF14.85
aaF9.4800000000000004
aF14.34
aI4800
aS'PIT'
p81
aa(lp82
S'Sammy Watkins'
p83
a(lp84
F4.4100000000000001
aF15.970000000000001
aaF10.19
aF15.84
aI5800
aS'CLE'
p85
aa(lp86
S'Dwayne Allen'
p87
a(lp88
F1.71
aF10.27
aaF5.9900000000000002
aF8.5600000000000005
aI3600
aS'WSH'
p89
aag11
a(lp90
S'Miami'
p91
a(lp92
F3.1800000000000002
aF21.219999999999999
aaF12.199999999999999
aF10.890000000000001
aI3200
aS'NYJ'
p93
aaa(lp94
g53
ag48
ag57
a(lp95
S'Jeremy Maclin'
p96
a(lp97
F5.7300000000000004
aF18.710000000000001
aaF12.220000000000001
aF18.329999999999998
aI6800
aS'DAL'
p98
aa(lp99
S'Anquan Boldin'
p100
a(lp101
F4.21
aF18.550000000000001
aaF11.380000000000001
aF17.280000000000001
aI5700
aS'SEA'
p102
aag23
a(lp103
S'Antonio Gates'
p104
a(lp105
F1.8999999999999999
aF13.76
aaF7.8300000000000001
aF11.75
aI4200
aS'BAL'
p106
aag31
ag90
aa.