(lp1
(lp2
(lp3
S'Joe Flacco'
p4
a(lp5
F12.5
aF25.920000000000002
aaF19.210000000000001
aF19.809999999999999
aI6700
aS'SD'
p6
aa(lp7
S'Fred Jackson'
p8
a(lp9
F5.0499999999999998
aF16.710000000000001
aaF10.880000000000001
aF14.140000000000001
aI5300
aS'CLE'
p10
aa(lp11
S"Le'Veon Bell"
p12
a(lp13
F9.5399999999999991
aF30.5
aaF20.02
aF24.620000000000001
aI8700
aS'NO'
p14
aa(lp15
S'Andre Johnson'
p16
a(lp17
F3.29
aF14.289999999999999
aaF8.7899999999999991
aF14.380000000000001
aI4900
aS'TEN'
p18
aa(lp19
S'Marques Colston'
p20
a(lp21
F4.1100000000000003
aF14.85
aaF9.4800000000000004
aF14.34
aI4800
aS'PIT'
p22
aa(lp23
S'Kelvin Benjamin'
p24
a(lp25
F3.5099999999999998
aF19.309999999999999
aaF11.41
aF16.710000000000001
aI6600
aS'MIN'
p26
aa(lp27
S'Heath Miller'
p28
a(lp29
F0.93999999999999995
aF11.52
aaF6.2300000000000004
aF9.7200000000000006
aI3800
aS'NO'
p30
aa(lp31
S'Justin Forsett'
p32
a(lp33
F6.9199999999999999
aF21.719999999999999
aaF14.32
aF18.52
aI6300
aS'SD'
p34
aa(lp35
S'New York Giants'
p36
a(lp37
F3.8900000000000001
aF22.91
aaF13.4
aF11.48
aI2800
aS'JAC'
p38
aaa(lp39
(lp40
S'Andy Dalton'
p41
a(lp42
F11.17
aF24.129999999999999
aaF17.649999999999999
aF18.899999999999999
aI6100
aS'TB'
p43
aag31
a(lp44
S'Ryan Mathews'
p45
a(lp46
F2.5499999999999998
aF19.829999999999998
aaF11.19
aF13.49
aI5100
aS'BAL'
p47
aa(lp48
S'Sammy Watkins'
p49
a(lp50
F4.4100000000000001
aF15.970000000000001
aaF10.19
aF15.84
aI5800
aS'CLE'
p51
aag19
ag23
ag27
ag11
ag35
aa(lp52
g40
a(lp53
S'Alfred Morris'
p54
a(lp55
F4.7599999999999998
aF19.420000000000002
aaF12.09
aF13.130000000000001
aI5500
aS'IND'
p56
aag11
ag19
ag48
ag23
a(lp57
S'Jordan Reed'
p58
a(lp59
F0.66000000000000003
aF12.539999999999999
aaF5.9400000000000004
aF9.9299999999999997
aI3200
aS'IND'
p60
aag31
ag35
aa(lp61
(lp62
S'Drew Brees'
p63
a(lp64
F14.710000000000001
aF30.489999999999998
aaF22.600000000000001
aF26.93
aI8500
aS'PIT'
p65
aag11
ag53
a(lp66
S'Steve Smith'
p67
a(lp68
F3.5800000000000001
aF14.98
aaF9.2799999999999994
aF14.19
aI5000
aS'SD'
p69
aag19
ag23
a(lp70
S'Scott Chandler'
p71
a(lp72
F0.95999999999999996
aF9.1400000000000006
aaF5.0499999999999998
aF7.4500000000000002
aI3000
aS'CLE'
p73
aag44
ag35
aa(lp74
g62
ag11
ag7
a(lp75
S'Mohamed Sanu'
p76
a(lp77
F3.8599999999999999
aF14.720000000000001
aaF9.2899999999999991
aF13.84
aI5200
aS'TB'
p78
aag66
ag15
ag57
ag31
ag35
aa.