(lp1
(lp2
(lp3
S'Tom Brady'
p4
a(lp5
F14.210000000000001
aF29.43
aaF21.82
aF26.050000000000001
aI8400
aS'GB'
p6
aa(lp7
S'Andre Ellington'
p8
a(lp9
F7.8099999999999996
aF20.09
aaF13.949999999999999
aF17.600000000000001
aI6200
aS'ATL'
p10
aa(lp11
S"Le'Veon Bell"
p12
a(lp13
F9.5399999999999991
aF30.5
aaF20.02
aF24.620000000000001
aI8700
aS'NO'
p14
aa(lp15
S'Percy Harvin'
p16
a(lp17
F1.3
aF14.92
aaF8.1099999999999994
aF13.300000000000001
aI5000
aS'MIA'
p18
aa(lp19
S'Kelvin Benjamin'
p20
a(lp21
F3.5099999999999998
aF19.309999999999999
aaF11.41
aF16.710000000000001
aI6600
aS'MIN'
p22
aa(lp23
S'Mike Wallace'
p24
a(lp25
F3.21
aF15.99
aaF9.5999999999999996
aF15.08
aI4600
aS'NYJ'
p26
aa(lp27
S'Scott Chandler'
p28
a(lp29
F0.95999999999999996
aF9.1400000000000006
aaF5.0499999999999998
aF7.4500000000000002
aI3000
aS'CLE'
p30
aa(lp31
S'Lamar Miller'
p32
a(lp33
F5.8099999999999996
aF21.050000000000001
aaF13.43
aF17.289999999999999
aI4500
aS'NYJ'
p34
aa(lp35
S'New York Giants'
p36
a(lp37
F3.8900000000000001
aF22.91
aaF13.4
aF11.48
aI2800
aS'JAC'
p38
aaa(lp39
g3
ag11
a(lp40
S'Ryan Mathews'
p41
a(lp42
F2.5499999999999998
aF19.829999999999998
aaF11.19
aF13.49
aI5100
aS'BAL'
p43
aag19
ag23
ag15
a(lp44
S'Travis Kelce'
p45
a(lp46
F2.1400000000000001
aF13.380000000000001
aaF7.7599999999999998
aF11.59
aI4300
aS'DEN'
p47
aag31
ag35
aa(lp48
(lp49
S'Drew Brees'
p50
a(lp51
F14.710000000000001
aF30.489999999999998
aaF22.600000000000001
aF26.93
aI8500
aS'PIT'
p52
aa(lp53
S"Le'Veon Bell"
p54
a(lp55
F9.5399999999999991
aF30.5
aaF20.02
aF24.620000000000001
aI8700
aS'NO'
p56
aa(lp57
S'Lamar Miller'
p58
a(lp59
F5.8099999999999996
aF21.050000000000001
aaF13.43
aF17.289999999999999
aI4500
aS'NYJ'
p60
aa(lp61
S'Marques Colston'
p62
a(lp63
F4.1100000000000003
aF14.85
aaF9.4800000000000004
aF14.34
aI4800
aS'PIT'
p64
aa(lp65
S'Roddy White'
p66
a(lp67
F3.96
aF15.699999999999999
aaF9.8300000000000001
aF15.42
aI6400
aS'ARI'
p68
aa(lp69
S'Sammy Watkins'
p70
a(lp71
F4.4100000000000001
aF15.970000000000001
aaF10.19
aF15.84
aI5800
aS'CLE'
p72
aa(lp73
S'Jordan Reed'
p74
a(lp75
F0.66000000000000003
aF12.539999999999999
aaF5.9400000000000004
aF9.9299999999999997
aI3200
aS'IND'
p76
aa(lp77
S'Andre Johnson'
p78
a(lp79
F3.29
aF14.289999999999999
aaF8.7899999999999991
aF14.380000000000001
aI4900
aS'TEN'
p80
aa(lp81
S'Miami'
p82
a(lp83
F3.1800000000000002
aF21.219999999999999
aaF12.199999999999999
aF10.890000000000001
aI3200
aS'NYJ'
p84
aaa(lp85
(lp86
S'Drew Brees'
p87
a(lp88
F14.710000000000001
aF30.489999999999998
aaF22.600000000000001
aF26.93
aI8500
aS'PIT'
p89
aag31
ag7
a(lp90
S'Larry Fitzgerald'
p91
a(lp92
F3.0600000000000001
aF14.779999999999999
aaF8.9199999999999999
aF13.67
aI5300
aS'ATL'
p93
aa(lp94
S'Julio Jones'
p95
a(lp96
F4.8700000000000001
aF16.809999999999999
aaF10.84
aF17.649999999999999
aI7200
aS'ARI'
p97
aag23
ag44
a(lp98
S'Justin Forsett'
p99
a(lp100
F6.9199999999999999
aF21.719999999999999
aaF14.32
aF18.52
aI6300
aS'SD'
p101
aag35
aa(lp102
g86
ag11
ag98
a(lp103
S'Roddy White'
p104
a(lp105
F3.96
aF15.699999999999999
aaF9.8300000000000001
aF15.42
aI6400
aS'ARI'
p106
aag23
a(lp107
S'Marques Colston'
p108
a(lp109
F4.1100000000000003
aF14.85
aaF9.4800000000000004
aF14.34
aI4800
aS'PIT'
p110
aag27
ag31
a(lp111
S'Cincinnati'
p112
a(lp113
F4.4000000000000004
aF22.02
aaF13.210000000000001
aF11.050000000000001
aI3200
aS'TB'
p114
aaa.