(lp1
(lp2
(lp3
S'Russell Wilson'
p4
a(lp5
F7.4100000000000001
aF25.710000000000001
aaF16.559999999999999
aF17.57
aI7600
aS'SF'
p6
aa(lp7
S'Frank Gore'
p8
a(lp9
F3.6600000000000001
aF13.32
aaF8.4900000000000002
aF10.960000000000001
aI3500
aS'SEA'
p10
aa(lp11
S'Reggie Bush'
p12
a(lp13
F4
aF14.640000000000001
aaF9.3200000000000003
aF12.210000000000001
aI4500
aS'CHI'
p14
aa(lp15
S'Alshon Jeffery'
p16
a(lp17
F3.2000000000000002
aF16.98
aaF10.09
aF16.129999999999999
aI6300
aS'DET'
p18
aa(lp19
S'Brandon Marshall'
p20
a(lp21
F2.5800000000000001
aF18.940000000000001
aaF10.76
aF15.93
aI6400
aS'DET'
p22
aa(lp23
S'Anquan Boldin'
p24
a(lp25
F4.21
aF18.550000000000001
aaF11.380000000000001
aF17.280000000000001
aI5700
aS'SEA'
p26
aa(lp27
S'Martellus Bennett'
p28
a(lp29
F1.9399999999999999
aF10.5
aaF6.2199999999999998
aF10.449999999999999
aI4000
aS'DET'
p30
aa(lp31
S'DeMarco Murray'
p32
a(lp33
F8.0700000000000003
aF26.23
aaF17.149999999999999
aF20.84
aI8400
aS'PHI'
p34
aa(lp35
S'Detroit'
p36
a(lp37
F5.3899999999999997
aF20.75
aaF13.07
aF11.76
aI3400
aS'CHI'
p38
aaa(lp39
(lp40
S'Mark Sanchez'
p41
a(lp42
F11.51
aF24.550000000000001
aaF18.030000000000001
aF19.420000000000002
aI6800
aS'DAL'
p43
aag11
a(lp44
S'Marshawn Lynch'
p45
a(lp46
F8.2400000000000002
aF23.82
aaF16.030000000000001
aF20.079999999999998
aI6400
aS'SF'
p47
aa(lp48
S'Golden Tate'
p49
a(lp50
F4.5999999999999996
aF16.940000000000001
aaF10.77
aF16.539999999999999
aI6600
aS'CHI'
p51
aag15
a(lp52
S'Dez Bryant'
p53
a(lp54
F4.3700000000000001
aF18.469999999999999
aaF11.42
aF17.27
aI7900
aS'PHI'
p55
aa(lp56
S'Jason Witten'
p57
a(lp58
F2.4199999999999999
aF12.140000000000001
aaF7.2800000000000002
aF11.460000000000001
aI4500
aS'PHI'
p59
aag7
ag35
aa(lp60
g40
ag44
ag11
ag15
ag48
ag52
ag56
ag7
a(lp61
S'Seattle'
p62
a(lp63
F0.48999999999999999
aF15.369999999999999
aaF7.9299999999999997
aF7.0999999999999996
aI3300
aS'SF'
p64
aaa(lp65
(lp66
S'Jay Cutler'
p67
a(lp68
F7.6100000000000003
aF21.75
aaF14.68
aF15.970000000000001
aI6900
aS'DET'
p69
aag11
ag31
a(lp70
S'Jeremy Maclin'
p71
a(lp72
F5.7300000000000004
aF18.710000000000001
aaF12.220000000000001
aF18.329999999999998
aI6800
aS'DAL'
p73
aa(lp74
S'Calvin Johnson'
p75
a(lp76
F1.3200000000000001
aF25.579999999999998
aaF13.449999999999999
aF18.75
aI7000
aS'CHI'
p77
aag23
ag27
ag7
a(lp78
S'Chicago'
p79
a(lp80
F1.52
aF15.02
aaF8.2699999999999996
aF7.6799999999999997
aI3000
aS'DET'
p81
aaa(lp82
g66
ag44
ag7
ag15
ag48
ag23
ag27
ag74
ag61
aa.