(lp1
(lp2
(lp3
S'Tom Brady'
p4
a(lp5
F14.210000000000001
aF29.43
aaF21.82
aF26.050000000000001
aI8400
aS'GB'
p6
aa(lp7
S'Alfred Morris'
p8
a(lp9
F4.7599999999999998
aF19.420000000000002
aaF12.09
aF13.130000000000001
aI5500
aS'IND'
p10
aa(lp11
S'Justin Forsett'
p12
a(lp13
F6.9199999999999999
aF21.719999999999999
aaF14.32
aF18.52
aI6300
aS'SD'
p14
aa(lp15
S'Marques Colston'
p16
a(lp17
F4.1100000000000003
aF14.85
aaF9.4800000000000004
aF14.34
aI4800
aS'PIT'
p18
aa(lp19
S'Larry Fitzgerald'
p20
a(lp21
F3.0600000000000001
aF14.779999999999999
aaF8.9199999999999999
aF13.67
aI5300
aS'ATL'
p22
aa(lp23
S'Steve Smith'
p24
a(lp25
F3.5800000000000001
aF14.98
aaF9.2799999999999994
aF14.19
aI5000
aS'SD'
p26
aa(lp27
S'Jordan Reed'
p28
a(lp29
F0.66000000000000003
aF12.539999999999999
aaF5.9400000000000004
aF9.9299999999999997
aI3200
aS'IND'
p30
aa(lp31
S"Le'Veon Bell"
p32
a(lp33
F9.5399999999999991
aF30.5
aaF20.02
aF24.620000000000001
aI8700
aS'NO'
p34
aa(lp35
S'New York Giants'
p36
a(lp37
F3.8900000000000001
aF22.91
aaF13.4
aF11.48
aI2800
aS'JAC'
p38
aaa(lp39
(lp40
S'Philip Rivers'
p41
a(lp42
F11.94
aF24.920000000000002
aaF18.43
aF19.27
aI6000
aS'BAL'
p43
aa(lp44
S'Ryan Mathews'
p45
a(lp46
F2.5499999999999998
aF19.829999999999998
aaF11.19
aF13.49
aI5100
aS'BAL'
p47
aa(lp48
S'Andre Ellington'
p49
a(lp50
F7.8099999999999996
aF20.09
aaF13.949999999999999
aF17.600000000000001
aI6200
aS'ATL'
p51
aa(lp52
S'Marques Colston'
p53
a(lp54
F4.1100000000000003
aF14.85
aaF9.4800000000000004
aF14.34
aI4800
aS'PIT'
p55
aa(lp56
S'Mohamed Sanu'
p57
a(lp58
F3.8599999999999999
aF14.720000000000001
aaF9.2899999999999991
aF13.84
aI5200
aS'TB'
p59
aa(lp60
S'Sammy Watkins'
p61
a(lp62
F4.4100000000000001
aF15.970000000000001
aaF10.19
aF15.84
aI5800
aS'CLE'
p63
aa(lp64
S'Julius Thomas'
p65
a(lp66
F2.5600000000000001
aF16.260000000000002
aaF9.4100000000000001
aF14.33
aI5200
aS'KC'
p67
aa(lp68
S"Le'Veon Bell"
p69
a(lp70
F9.5399999999999991
aF30.5
aaF20.02
aF24.620000000000001
aI8700
aS'NO'
p71
aa(lp72
S'New York Giants'
p73
a(lp74
F3.8900000000000001
aF22.91
aaF13.4
aF11.48
aI2800
aS'JAC'
p75
aaa(lp76
(lp77
S'Drew Brees'
p78
a(lp79
F14.710000000000001
aF30.489999999999998
aaF22.600000000000001
aF26.93
aI8500
aS'PIT'
p80
aag68
a(lp81
S'Alfred Morris'
p82
a(lp83
F4.7599999999999998
aF19.420000000000002
aaF12.09
aF13.130000000000001
aI5500
aS'IND'
p84
aag56
a(lp85
S'Steve Smith'
p86
a(lp87
F3.5800000000000001
aF14.98
aaF9.2799999999999994
aF14.19
aI5000
aS'SD'
p88
aag52
a(lp89
S'Jordan Reed'
p90
a(lp91
F0.66000000000000003
aF12.539999999999999
aaF5.9400000000000004
aF9.9299999999999997
aI3200
aS'IND'
p92
aag48
ag72
aa(lp93
(lp94
S'Andy Dalton'
p95
a(lp96
F11.17
aF24.129999999999999
aaF17.649999999999999
aF18.899999999999999
aI6100
aS'TB'
p97
aag31
a(lp98
S'Andre Ellington'
p99
a(lp100
F7.8099999999999996
aF20.09
aaF13.949999999999999
aF17.600000000000001
aI6200
aS'ATL'
p101
aa(lp102
S'Sammy Watkins'
p103
a(lp104
F4.4100000000000001
aF15.970000000000001
aaF10.19
aF15.84
aI5800
aS'CLE'
p105
aag23
ag15
a(lp106
S'Antonio Gates'
p107
a(lp108
F1.8999999999999999
aF13.76
aaF7.8300000000000001
aF11.75
aI4200
aS'BAL'
p109
aag11
ag35
aa(lp110
(lp111
S'Drew Brees'
p112
a(lp113
F14.710000000000001
aF30.489999999999998
aaF22.600000000000001
aF26.93
aI8500
aS'PIT'
p114
aag7
ag31
ag15
ag23
a(lp115
S'Mohamed Sanu'
p116
a(lp117
F3.8599999999999999
aF14.720000000000001
aaF9.2899999999999991
aF13.84
aI5200
aS'TB'
p118
aag27
ag11
ag35
aa.