(lp1
(lp2
(lp3
S'Drew Brees'
p4
a(lp5
F14.710000000000001
aF30.489999999999998
aaF22.600000000000001
aF26.93
aI8500
aS'PIT'
p6
aa(lp7
S'Andre Ellington'
p8
a(lp9
F7.8099999999999996
aF20.09
aaF13.949999999999999
aF17.600000000000001
aI6200
aS'ATL'
p10
aa(lp11
S"Le'Veon Bell"
p12
a(lp13
F9.5399999999999991
aF30.5
aaF20.02
aF24.620000000000001
aI8700
aS'NO'
p14
aa(lp15
S'Percy Harvin'
p16
a(lp17
F1.3
aF14.92
aaF8.1099999999999994
aF13.300000000000001
aI5000
aS'MIA'
p18
aa(lp19
S'Mike Wallace'
p20
a(lp21
F3.21
aF15.99
aaF9.5999999999999996
aF15.08
aI4600
aS'NYJ'
p22
aa(lp23
S'Larry Fitzgerald'
p24
a(lp25
F3.0600000000000001
aF14.779999999999999
aaF8.9199999999999999
aF13.67
aI5300
aS'ATL'
p26
aa(lp27
S'Antonio Gates'
p28
a(lp29
F1.8999999999999999
aF13.76
aaF7.8300000000000001
aF11.75
aI4200
aS'BAL'
p30
aa(lp31
S'Lamar Miller'
p32
a(lp33
F5.8099999999999996
aF21.050000000000001
aaF13.43
aF17.289999999999999
aI4500
aS'NYJ'
p34
aa(lp35
S'New York Giants'
p36
a(lp37
F3.8900000000000001
aF22.91
aaF13.4
aF11.48
aI2800
aS'JAC'
p38
aaa(lp39
g3
ag11
ag31
ag23
ag15
ag19
a(lp40
S'Travis Kelce'
p41
a(lp42
F2.1400000000000001
aF13.380000000000001
aaF7.7599999999999998
aF11.59
aI4300
aS'DEN'
p43
aa(lp44
S'Justin Forsett'
p45
a(lp46
F6.9199999999999999
aF21.719999999999999
aaF14.32
aF18.52
aI6300
aS'SD'
p47
aag35
aa(lp48
(lp49
S'Tom Brady'
p50
a(lp51
F14.210000000000001
aF29.43
aaF21.82
aF26.050000000000001
aI8400
aS'GB'
p52
aag11
ag31
a(lp53
S'Steve Smith'
p54
a(lp55
F3.5800000000000001
aF14.98
aaF9.2799999999999994
aF14.19
aI5000
aS'SD'
p56
aa(lp57
S'Mohamed Sanu'
p58
a(lp59
F3.8599999999999999
aF14.720000000000001
aaF9.2899999999999991
aF13.84
aI5200
aS'TB'
p60
aa(lp61
S'Marques Colston'
p62
a(lp63
F4.1100000000000003
aF14.85
aaF9.4800000000000004
aF14.34
aI4800
aS'PIT'
p64
aag40
ag7
ag35
aa(lp65
(lp66
S'Philip Rivers'
p67
a(lp68
F11.94
aF24.920000000000002
aaF18.43
aF19.27
aI6000
aS'BAL'
p69
aag31
ag44
a(lp70
S'Kelvin Benjamin'
p71
a(lp72
F3.5099999999999998
aF19.309999999999999
aaF11.41
aF16.710000000000001
aI6600
aS'MIN'
p73
aag19
a(lp74
S'Andre Johnson'
p75
a(lp76
F3.29
aF14.289999999999999
aaF8.7899999999999991
aF14.380000000000001
aI4900
aS'TEN'
p77
aa(lp78
S'Julius Thomas'
p79
a(lp80
F2.5600000000000001
aF16.260000000000002
aaF9.4100000000000001
aF14.33
aI5200
aS'KC'
p81
aag11
a(lp82
S'Cincinnati'
p83
a(lp84
F4.4000000000000004
aF22.02
aaF13.210000000000001
aF11.050000000000001
aI3200
aS'TB'
p85
aaa(lp86
g3
ag11
ag31
ag23
ag19
ag53
ag40
ag7
ag35
aa.