(lp1
(lp2
(lp3
S'Drew Brees'
p4
a(lp5
F14.710000000000001
aF30.489999999999998
aaF22.600000000000001
aF26.93
aI8500
aS'PIT'
p6
aa(lp7
S'Justin Forsett'
p8
a(lp9
F6.9199999999999999
aF21.719999999999999
aaF14.32
aF18.52
aI6300
aS'SD'
p10
aa(lp11
S"Le'Veon Bell"
p12
a(lp13
F9.5399999999999991
aF30.5
aaF20.02
aF24.620000000000001
aI8700
aS'NO'
p14
aa(lp15
S'Andre Johnson'
p16
a(lp17
F3.29
aF14.289999999999999
aaF8.7899999999999991
aF14.380000000000001
aI4900
aS'TEN'
p18
aa(lp19
S'Steve Smith'
p20
a(lp21
F3.5800000000000001
aF14.98
aaF9.2799999999999994
aF14.19
aI5000
aS'SD'
p22
aa(lp23
S'Marques Colston'
p24
a(lp25
F4.1100000000000003
aF14.85
aaF9.4800000000000004
aF14.34
aI4800
aS'PIT'
p26
aa(lp27
S'Jordan Reed'
p28
a(lp29
F0.66000000000000003
aF12.539999999999999
aaF5.9400000000000004
aF9.9299999999999997
aI3200
aS'IND'
p30
aa(lp31
S'Giovani Bernard'
p32
a(lp33
F3.1800000000000002
aF18.140000000000001
aaF10.66
aF14.44
aI5200
aS'TB'
p34
aa(lp35
S'Cincinnati'
p36
a(lp37
F4.4000000000000004
aF22.02
aaF13.210000000000001
aF11.050000000000001
aI3200
aS'TB'
p38
aaa(lp39
g3
ag11
ag31
ag15
ag19
ag23
a(lp40
S'Heath Miller'
p41
a(lp42
F0.93999999999999995
aF11.52
aaF6.2300000000000004
aF9.7200000000000006
aI3800
aS'NO'
p43
aag7
a(lp44
S'New York Giants'
p45
a(lp46
F3.8900000000000001
aF22.91
aaF13.4
aF11.48
aI2800
aS'JAC'
p47
aaa(lp48
g3
ag7
ag11
ag23
ag19
ag15
ag40
ag31
ag44
aa(lp49
g3
ag7
ag11
a(lp50
S'Kelvin Benjamin'
p51
a(lp52
F3.5099999999999998
aF19.309999999999999
aaF11.41
aF16.710000000000001
aI6600
aS'MIN'
p53
aag23
ag15
ag27
a(lp54
S'Antonio Gates'
p55
a(lp56
F1.8999999999999999
aF13.76
aaF7.8300000000000001
aF11.75
aI4200
aS'BAL'
p57
aag44
aa(lp58
g3
ag7
ag11
ag23
ag19
a(lp59
S'Sammy Watkins'
p60
a(lp61
F4.4100000000000001
aF15.970000000000001
aaF10.19
aF15.84
aI5800
aS'CLE'
p62
aag27
ag15
ag44
aa.