(lp1
(lp2
(lp3
S'Tom Brady'
p4
a(lp5
F14.210000000000001
aF29.43
aaF21.82
aF26.050000000000001
aI8400
aS'GB'
p6
aa(lp7
S'Justin Forsett'
p8
a(lp9
F6.9199999999999999
aF21.719999999999999
aaF14.32
aF18.52
aI6300
aS'SD'
p10
aa(lp11
S'Giovani Bernard'
p12
a(lp13
F3.1800000000000002
aF18.140000000000001
aaF10.66
aF14.44
aI5200
aS'TB'
p14
aa(lp15
S'Andre Johnson'
p16
a(lp17
F3.29
aF14.289999999999999
aaF8.7899999999999991
aF14.380000000000001
aI4900
aS'TEN'
p18
aa(lp19
S'Steve Smith'
p20
a(lp21
F3.5800000000000001
aF14.98
aaF9.2799999999999994
aF14.19
aI5000
aS'SD'
p22
aa(lp23
S'Sammy Watkins'
p24
a(lp25
F4.4100000000000001
aF15.970000000000001
aaF10.19
aF15.84
aI5800
aS'CLE'
p26
aa(lp27
S'Jordan Reed'
p28
a(lp29
F0.66000000000000003
aF12.539999999999999
aaF5.9400000000000004
aF9.9299999999999997
aI3200
aS'IND'
p30
aa(lp31
S"Le'Veon Bell"
p32
a(lp33
F9.5399999999999991
aF30.5
aaF20.02
aF24.620000000000001
aI8700
aS'NO'
p34
aa(lp35
S'Jacksonville'
p36
a(lp37
F1.6399999999999999
aF17.32
aaF9.4800000000000004
aF9.1500000000000004
aI2300
aS'NYG'
p38
aaa(lp39
(lp40
S'Philip Rivers'
p41
a(lp42
F11.94
aF24.920000000000002
aaF18.43
aF19.27
aI6000
aS'BAL'
p43
aa(lp44
S"Le'Veon Bell"
p45
a(lp46
F9.5399999999999991
aF30.5
aaF20.02
aF24.620000000000001
aI8700
aS'NO'
p47
aa(lp48
S'Justin Forsett'
p49
a(lp50
F6.9199999999999999
aF21.719999999999999
aaF14.32
aF18.52
aI6300
aS'SD'
p51
aa(lp52
S'Steve Smith'
p53
a(lp54
F3.5800000000000001
aF14.98
aaF9.2799999999999994
aF14.19
aI5000
aS'SD'
p55
aa(lp56
S'Julian Edelman'
p57
a(lp58
F4.0099999999999998
aF14.59
aaF9.3000000000000007
aF16
aI6200
aS'GB'
p59
aa(lp60
S'Andre Johnson'
p61
a(lp62
F3.29
aF14.289999999999999
aaF8.7899999999999991
aF14.380000000000001
aI4900
aS'TEN'
p63
aa(lp64
S'Julius Thomas'
p65
a(lp66
F2.5600000000000001
aF16.260000000000002
aaF9.4100000000000001
aF14.33
aI5200
aS'KC'
p67
aa(lp68
S'Marques Colston'
p69
a(lp70
F4.1100000000000003
aF14.85
aaF9.4800000000000004
aF14.34
aI4800
aS'PIT'
p71
aa(lp72
S'New York Giants'
p73
a(lp74
F3.8900000000000001
aF22.91
aaF13.4
aF11.48
aI2800
aS'JAC'
p75
aaa(lp76
(lp77
S'Andy Dalton'
p78
a(lp79
F11.17
aF24.129999999999999
aaF17.649999999999999
aF18.899999999999999
aI6100
aS'TB'
p80
aag44
ag48
ag68
a(lp81
S'Sammy Watkins'
p82
a(lp83
F4.4100000000000001
aF15.970000000000001
aaF10.19
aF15.84
aI5800
aS'CLE'
p84
aag60
a(lp85
S'Antonio Gates'
p86
a(lp87
F1.8999999999999999
aF13.76
aaF7.8300000000000001
aF11.75
aI4200
aS'BAL'
p88
aa(lp89
S'Andre Ellington'
p90
a(lp91
F7.8099999999999996
aF20.09
aaF13.949999999999999
aF17.600000000000001
aI6200
aS'ATL'
p92
aag72
aa(lp93
(lp94
S'Drew Brees'
p95
a(lp96
F14.710000000000001
aF30.489999999999998
aaF22.600000000000001
aF26.93
aI8500
aS'PIT'
p97
aag44
ag89
ag81
ag68
ag52
a(lp98
S'Jordan Reed'
p99
a(lp100
F0.66000000000000003
aF12.539999999999999
aaF5.9400000000000004
aF9.9299999999999997
aI3200
aS'IND'
p101
aag60
a(lp102
S'Minnesota'
p103
a(lp104
F3.4700000000000002
aF18.57
aaF11.02
aF9.8200000000000003
aI2900
aS'CAR'
p105
aaa(lp106
g94
ag48
a(lp107
S'Giovani Bernard'
p108
a(lp109
F3.1800000000000002
aF18.140000000000001
aaF10.66
aF14.44
aI5200
aS'TB'
p110
aag60
a(lp111
S'Larry Fitzgerald'
p112
a(lp113
F3.0600000000000001
aF14.779999999999999
aaF8.9199999999999999
aF13.67
aI5300
aS'ATL'
p114
aag68
ag98
ag44
a(lp115
S'Houston'
p116
a(lp117
F4.2400000000000002
aF20.600000000000001
aaF12.42
aF10.960000000000001
aI3100
aS'TEN'
p118
aaa.