(lp1
(lp2
(lp3
S'Joe Flacco'
p4
a(lp5
F12.5
aF25.920000000000002
aaF19.210000000000001
aF19.809999999999999
aI6700
aS'SD'
p6
aa(lp7
S'Andre Ellington'
p8
a(lp9
F7.8099999999999996
aF20.09
aaF13.949999999999999
aF17.600000000000001
aI6200
aS'ATL'
p10
aa(lp11
S'Justin Forsett'
p12
a(lp13
F6.9199999999999999
aF21.719999999999999
aaF14.32
aF18.52
aI6300
aS'SD'
p14
aa(lp15
S'Marques Colston'
p16
a(lp17
F4.1100000000000003
aF14.85
aaF9.4800000000000004
aF14.34
aI4800
aS'PIT'
p18
aa(lp19
S'Jeremy Maclin'
p20
a(lp21
F5.7300000000000004
aF18.710000000000001
aaF12.220000000000001
aF18.329999999999998
aI6800
aS'DAL'
p22
aa(lp23
S'Sammy Watkins'
p24
a(lp25
F4.4100000000000001
aF15.970000000000001
aaF10.19
aF15.84
aI5800
aS'CLE'
p26
aa(lp27
S'Antonio Gates'
p28
a(lp29
F1.8999999999999999
aF13.76
aaF7.8300000000000001
aF11.75
aI4200
aS'BAL'
p30
aa(lp31
S'Marshawn Lynch'
p32
a(lp33
F8.2400000000000002
aF23.82
aaF16.030000000000001
aF20.079999999999998
aI6400
aS'SF'
p34
aa(lp35
S'New York Giants'
p36
a(lp37
F3.8900000000000001
aF22.91
aaF13.4
aF11.48
aI2800
aS'JAC'
p38
aaa(lp39
(lp40
S'Andy Dalton'
p41
a(lp42
F11.17
aF24.129999999999999
aaF17.649999999999999
aF18.899999999999999
aI6100
aS'TB'
p43
aag31
a(lp44
S'Ryan Mathews'
p45
a(lp46
F2.5499999999999998
aF19.829999999999998
aaF11.19
aF13.49
aI5100
aS'BAL'
p47
aag23
ag15
a(lp48
S'Anquan Boldin'
p49
a(lp50
F4.21
aF18.550000000000001
aaF11.380000000000001
aF17.280000000000001
aI5700
aS'SEA'
p51
aa(lp52
S'Travis Kelce'
p53
a(lp54
F2.1400000000000001
aF13.380000000000001
aaF7.7599999999999998
aF11.59
aI4300
aS'DEN'
p55
aa(lp56
S"Le'Veon Bell"
p57
a(lp58
F9.5399999999999991
aF30.5
aaF20.02
aF24.620000000000001
aI8700
aS'NO'
p59
aag35
aa(lp60
g3
a(lp61
S'Fred Jackson'
p62
a(lp63
F5.0499999999999998
aF16.710000000000001
aaF10.880000000000001
aF14.140000000000001
aI5300
aS'CLE'
p64
aag56
ag15
a(lp65
S'Brandon Marshall'
p66
a(lp67
F2.5800000000000001
aF18.940000000000001
aaF10.76
aF15.93
aI6400
aS'DET'
p68
aag48
a(lp69
S'Jordan Reed'
p70
a(lp71
F0.66000000000000003
aF12.539999999999999
aaF5.9400000000000004
aF9.9299999999999997
aI3200
aS'IND'
p72
aag31
ag35
aa(lp73
(lp74
S'Philip Rivers'
p75
a(lp76
F11.94
aF24.920000000000002
aaF18.43
aF19.27
aI6000
aS'BAL'
p77
aag56
a(lp78
S'Frank Gore'
p79
a(lp80
F3.6600000000000001
aF13.32
aaF8.4900000000000002
aF10.960000000000001
aI3500
aS'SEA'
p81
aag48
a(lp82
S'Steve Smith'
p83
a(lp84
F3.5800000000000001
aF14.98
aaF9.2799999999999994
aF14.19
aI5000
aS'SD'
p85
aa(lp86
S'Golden Tate'
p87
a(lp88
F4.5999999999999996
aF16.940000000000001
aaF10.77
aF16.539999999999999
aI6600
aS'CHI'
p89
aa(lp90
S'Julius Thomas'
p91
a(lp92
F2.5600000000000001
aF16.260000000000002
aaF9.4100000000000001
aF14.33
aI5200
aS'KC'
p93
aag31
ag35
aa(lp94
g3
ag7
ag56
ag82
a(lp95
S'Andre Johnson'
p96
a(lp97
F3.29
aF14.289999999999999
aaF8.7899999999999991
aF14.380000000000001
aI4900
aS'TEN'
p98
aag48
a(lp99
S'Dwayne Allen'
p100
a(lp101
F1.71
aF10.27
aaF5.9900000000000002
aF8.5600000000000005
aI3600
aS'WSH'
p102
aag31
ag35
aa.