(lp1
c__builtin__
set
p2
((lp3
S'Randall Cobb'
p4
aS'Larry Fitzgerald'
p5
aS'Alex Smith'
p6
aS'Scott Chandler'
p7
aS'Andre Ellington'
p8
aS'Andre Johnson'
p9
aS'Shane Vereen'
p10
aS'Arizona'
p11
aS'Rob Gronkowski'
p12
atRp13
a.