(lp1
(lp2
(lp3
S'Matt Ryan'
p4
a(lp5
F14.77
aF29.210000000000001
aaF21.989999999999998
aF26.039999999999999
aI6600
aS'PIT'
p6
aa(lp7
S'Lesean McCoy'
p8
a(lp9
F7.4199999999999999
aF21.879999999999999
aaF14.65
aF17.539999999999999
aI6600
aS'DAL'
p10
aa(lp11
S'Marshawn Lynch'
p12
a(lp13
F7.9699999999999998
aF25.91
aaF16.940000000000001
aF21.199999999999999
aI7300
aS'SF'
p14
aa(lp15
S'Roddy White'
p16
a(lp17
F5.75
aF17.07
aaF11.41
aF17.289999999999999
aI5800
aS'PIT'
p18
aa(lp19
S'Anquan Boldin'
p20
a(lp21
F1.01
aF15.109999999999999
aaF8.0600000000000005
aF13.58
aI5000
aS'SEA'
p22
aa(lp23
S'Julio Jones'
p24
a(lp25
F7.4400000000000004
aF24.359999999999999
aaF15.9
aF25.300000000000001
aI7800
aS'PIT'
p26
aa(lp27
S'Owen Daniels'
p28
a(lp29
F2.0499999999999998
aF8.2699999999999996
aaF5.1600000000000001
aF8.3300000000000001
aI3000
aS'JAC'
p30
aa(lp31
S'Giovani Bernard'
p32
a(lp33
F2.1200000000000001
aF14.9
aaF8.5099999999999998
aF11.31
aI4400
aS'CLE'
p34
aa(lp35
S'Arizona'
p36
a(lp37
F7.0300000000000002
aF27.390000000000001
aaF17.210000000000001
aF15.33
aI3300
aS'STL'
p38
aaa(lp39
g3
a(lp40
S'Matt Forte'
p41
a(lp42
F8.1099999999999994
aF32.289999999999999
aaF20.199999999999999
aF25.77
aI9000
aS'NO'
p43
aa(lp44
S'Latavius Murray'
p45
a(lp46
F2.6699999999999999
aF16.530000000000001
aaF9.5999999999999996
aF12.01
aI4000
aS'KC'
p47
aa(lp48
S'Torrey Smith'
p49
a(lp50
F1.8200000000000001
aF17.239999999999998
aaF9.5299999999999994
aF13.470000000000001
aI5200
aS'JAC'
p51
aa(lp52
S'Jeremy Maclin'
p53
a(lp54
F5.8499999999999996
aF19.010000000000002
aaF12.43
aF17.960000000000001
aI6100
aS'DAL'
p55
aag23
ag27
ag19
ag35
aa(lp56
g3
ag11
a(lp57
S'Fred Jackson'
p58
a(lp59
F3.3599999999999999
aF16.84
aaF10.1
aF14.26
aI5200
aS'GB'
p60
aag23
ag15
ag52
a(lp61
S'Jordan Cameron'
p62
a(lp63
F3.9700000000000002
aF15.130000000000001
aaF5.5800000000000001
aF9.5999999999999996
aI4000
aS'CIN'
p64
aa(lp65
S'Steven Jackson'
p66
a(lp67
F2.8799999999999999
aF15.279999999999999
aaF9.0800000000000001
aF11.27
aI3800
aS'PIT'
p68
aag35
aa(lp69
(lp70
S'Peyton Manning'
p71
a(lp72
F14.92
aF33.460000000000001
aaF24.190000000000001
aF28.350000000000001
aI8900
aS'SD'
p73
aa(lp74
S'Ryan Mathews'
p75
a(lp76
F1.22
aF20.48
aaF10.85
aF13.4
aI4700
aS'DEN'
p77
aag40
ag48
ag15
a(lp78
S'Steve Smith'
p79
a(lp80
F3.7799999999999998
aF15.48
aaF9.6300000000000008
aF15.02
aI4800
aS'JAC'
p81
aa(lp82
S'Dwayne Allen'
p83
a(lp84
F1.1699999999999999
aF9.5099999999999998
aaF5.3399999999999999
aF7.9199999999999999
aI3300
aS'HOU'
p85
aa(lp86
S'Alfred Morris'
p87
a(lp88
F4.0999999999999996
aF20.579999999999998
aaF12.34
aF15.34
aI5000
aS'NYG'
p89
aag35
aa(lp90
g3
ag31
ag11
ag78
ag48
ag52
a(lp91
S'Antonio Gates'
p92
a(lp93
F2.8799999999999999
aF14.34
aaF8.6099999999999994
aF13.279999999999999
aI4500
aS'DEN'
p94
aag23
ag35
aa.